ARM GAS  /tmp/ccuqHRfY.s 			page 1


   1              		.cpu cortex-m3
   2              		.arch armv7-m
   3              		.fpu softvfp
   4              		.eabi_attribute 20, 1
   5              		.eabi_attribute 21, 1
   6              		.eabi_attribute 23, 3
   7              		.eabi_attribute 24, 1
   8              		.eabi_attribute 25, 1
   9              		.eabi_attribute 26, 1
  10              		.eabi_attribute 30, 1
  11              		.eabi_attribute 34, 1
  12              		.eabi_attribute 18, 4
  13              		.file	"main.c"
  14              		.text
  15              	.Ltext0:
  16              		.cfi_sections	.debug_frame
  17              		.file 1 "Core/Src/main.c"
  18              		.section	.text.MX_GPIO_Init,"ax",%progbits
  19              		.align	1
  20              		.syntax unified
  21              		.thumb
  22              		.thumb_func
  24              	MX_GPIO_Init:
  25              	.LFB72:
   1:Core/Src/main.c **** /* USER CODE BEGIN Header */
   2:Core/Src/main.c **** /**
   3:Core/Src/main.c ****   ******************************************************************************
   4:Core/Src/main.c ****   * @file           : main.c
   5:Core/Src/main.c ****   * @brief          : Main program body
   6:Core/Src/main.c ****   ******************************************************************************
   7:Core/Src/main.c ****   * @attention
   8:Core/Src/main.c ****   *
   9:Core/Src/main.c ****   * Copyright (c) 2026 STMicroelectronics.
  10:Core/Src/main.c ****   * All rights reserved.
  11:Core/Src/main.c ****   *
  12:Core/Src/main.c ****   * This software is licensed under terms that can be found in the LICENSE file
  13:Core/Src/main.c ****   * in the root directory of this software component.
  14:Core/Src/main.c ****   * If no LICENSE file comes with this software, it is provided AS-IS.
  15:Core/Src/main.c ****   *
  16:Core/Src/main.c ****   ******************************************************************************
  17:Core/Src/main.c ****   */
  18:Core/Src/main.c **** /* USER CODE END Header */
  19:Core/Src/main.c **** /* Includes ------------------------------------------------------------------*/
  20:Core/Src/main.c **** #include "main.h"
  21:Core/Src/main.c **** #include "stm32f103xb.h"
  22:Core/Src/main.c **** #include "stm32f1xx_hal_gpio.h"
  23:Core/Src/main.c **** #include "usb_device.h"
  24:Core/Src/main.c **** 
  25:Core/Src/main.c **** /* Private includes ----------------------------------------------------------*/
  26:Core/Src/main.c **** /* USER CODE BEGIN Includes */
  27:Core/Src/main.c **** #include <stdint.h>
  28:Core/Src/main.c **** #include <string.h>
  29:Core/Src/main.c **** #include <usbd_cdc_if.h>
  30:Core/Src/main.c **** /* USER CODE END Includes */
  31:Core/Src/main.c **** 
  32:Core/Src/main.c **** /* Private typedef -----------------------------------------------------------*/
  33:Core/Src/main.c **** /* USER CODE BEGIN PTD */
ARM GAS  /tmp/ccuqHRfY.s 			page 2


  34:Core/Src/main.c **** 
  35:Core/Src/main.c **** /* USER CODE END PTD */
  36:Core/Src/main.c **** 
  37:Core/Src/main.c **** /* Private define ------------------------------------------------------------*/
  38:Core/Src/main.c **** /* USER CODE BEGIN PD */
  39:Core/Src/main.c **** #define USB_BUFLEN 128
  40:Core/Src/main.c **** #define DIGIT1 GPIO_PIN_3
  41:Core/Src/main.c **** #define DIGIT2 GPIO_PIN_2
  42:Core/Src/main.c **** #define DIGIT3 GPIO_PIN_1
  43:Core/Src/main.c **** #define DIGIT4 GPIO_PIN_0
  44:Core/Src/main.c **** #define SEGA GPIO_PIN_1 // port B
  45:Core/Src/main.c **** #define SEGB GPIO_PIN_0 // ~
  46:Core/Src/main.c **** #define SEGC GPIO_PIN_7
  47:Core/Src/main.c **** #define SEGD GPIO_PIN_6
  48:Core/Src/main.c **** #define SEGE GPIO_PIN_5
  49:Core/Src/main.c **** #define SEGF GPIO_PIN_4
  50:Core/Src/main.c **** #define SEGG GPIO_PIN_10 // ~
  51:Core/Src/main.c **** #define SEGP GPIO_PIN_11 // ~
  52:Core/Src/main.c **** /* USER CODE END PD */
  53:Core/Src/main.c **** 
  54:Core/Src/main.c **** /* Private macro -------------------------------------------------------------*/
  55:Core/Src/main.c **** /* USER CODE BEGIN PM */
  56:Core/Src/main.c **** 
  57:Core/Src/main.c **** /* USER CODE END PM */
  58:Core/Src/main.c **** 
  59:Core/Src/main.c **** /* Private variables ---------------------------------------------------------*/
  60:Core/Src/main.c **** TIM_HandleTypeDef htim1;
  61:Core/Src/main.c **** 
  62:Core/Src/main.c **** /* USER CODE BEGIN PV */
  63:Core/Src/main.c **** uint8_t usbTxBuff[USB_BUFLEN];
  64:Core/Src/main.c **** uint16_t usbTxBufLen;
  65:Core/Src/main.c **** 
  66:Core/Src/main.c **** uint8_t usbRxBuff[USB_BUFLEN];
  67:Core/Src/main.c **** uint16_t usbRXBufLen;
  68:Core/Src/main.c **** uint8_t usbRXFlag =0;
  69:Core/Src/main.c **** 
  70:Core/Src/main.c **** typedef struct{
  71:Core/Src/main.c ****     GPIO_TypeDef *port;
  72:Core/Src/main.c ****     uint16_t Pin;
  73:Core/Src/main.c **** } PinData;
  74:Core/Src/main.c **** 
  75:Core/Src/main.c **** typedef struct{
  76:Core/Src/main.c ****   PinData* element;
  77:Core/Src/main.c ****   uint8_t size;
  78:Core/Src/main.c **** } list;
  79:Core/Src/main.c **** 
  80:Core/Src/main.c **** PinData LCDSegment1[] = {{GPIOB,SEGB}             ,{GPIOA,SEGC}};
  81:Core/Src/main.c **** PinData LCDSegment2[] = {{GPIOB,SEGA},{GPIOB,SEGB},             {GPIOA,SEGD},{GPIOA,SEGE},{GPIOB,SE
  82:Core/Src/main.c **** PinData LCDSegment3[] = {{GPIOB,SEGA},{GPIOB,SEGB},{GPIOA,SEGC},{GPIOA,SEGD},             {GPIOB,SE
  83:Core/Src/main.c **** PinData LCDSegment4[] = {             {GPIOB,SEGB},{GPIOA,SEGC},             {GPIOA,SEGF},{GPIOB,SE
  84:Core/Src/main.c **** PinData LCDSegment5[] = {{GPIOB,SEGA},             {GPIOA,SEGC},{GPIOA,SEGD},{GPIOA,SEGF},{GPIOB,SE
  85:Core/Src/main.c **** PinData LCDSegment6[] = {{GPIOB,SEGA},             {GPIOA,SEGC},{GPIOA,SEGD},{GPIOA,SEGE},{GPIOA,SE
  86:Core/Src/main.c **** PinData LCDSegment7[] = {{GPIOB,SEGA},{GPIOB,SEGB},{GPIOA,SEGC}};
  87:Core/Src/main.c **** PinData LCDSegment8[] = {{GPIOB,SEGA},{GPIOB,SEGB},{GPIOA,SEGC},{GPIOA,SEGD},{GPIOA,SEGE},{GPIOA,SE
  88:Core/Src/main.c **** PinData LCDSegment9[] = {{GPIOB,SEGA},{GPIOB,SEGB},{GPIOA,SEGC},{GPIOA,SEGD},             {GPIOA,SE
  89:Core/Src/main.c **** PinData LCDSegment0[] = {{GPIOB,SEGA},{GPIOB,SEGB},{GPIOA,SEGC},{GPIOA,SEGD},{GPIOA,SEGE},{GPIOA,SE
  90:Core/Src/main.c **** 
ARM GAS  /tmp/ccuqHRfY.s 			page 3


  91:Core/Src/main.c **** 
  92:Core/Src/main.c **** list LCDList[] = {{LCDSegment0, 7},
  93:Core/Src/main.c ****                   {LCDSegment1, 2},
  94:Core/Src/main.c ****                   {LCDSegment2, 5},
  95:Core/Src/main.c ****                   {LCDSegment3, 5},
  96:Core/Src/main.c ****                   {LCDSegment4, 4},
  97:Core/Src/main.c ****                   {LCDSegment5, 5},
  98:Core/Src/main.c ****                   {LCDSegment6, 6},
  99:Core/Src/main.c ****                   {LCDSegment7, 3},
 100:Core/Src/main.c ****                   {LCDSegment8, 7},
 101:Core/Src/main.c ****                   {LCDSegment9, 6}};
 102:Core/Src/main.c **** 
 103:Core/Src/main.c ****   
 104:Core/Src/main.c **** /* USER CODE END PV */
 105:Core/Src/main.c **** 
 106:Core/Src/main.c **** 
 107:Core/Src/main.c **** /* Private function prototypes -----------------------------------------------*/
 108:Core/Src/main.c **** void SystemClock_Config(void);
 109:Core/Src/main.c **** static void MX_GPIO_Init(void);
 110:Core/Src/main.c **** static void MX_TIM1_Init(void);
 111:Core/Src/main.c **** /* USER CODE BEGIN PFP */
 112:Core/Src/main.c **** void LCD_LEDConfig(uint8_t Value);
 113:Core/Src/main.c **** void LCDWrite(uint16_t DigitPosition, uint8_t WriteValue);
 114:Core/Src/main.c **** void DelayUS(TIM_HandleTypeDef *tim , uint8_t time);
 115:Core/Src/main.c **** 
 116:Core/Src/main.c **** /* USER CODE END PFP */
 117:Core/Src/main.c **** 
 118:Core/Src/main.c **** /* Private user code ---------------------------------------------------------*/
 119:Core/Src/main.c **** /* USER CODE BEGIN 0 */
 120:Core/Src/main.c **** void USB_RXCallback(uint8_t*Buf,uint32_t *Len){
 121:Core/Src/main.c ****   memset(usbRxBuff,0,sizeof(usbRxBuff)); // reset buffer
 122:Core/Src/main.c ****   memcpy(usbRxBuff,Buf,*Len); // cpy buf to Rx buffer 
 123:Core/Src/main.c ****   
 124:Core/Src/main.c ****   usbRXBufLen = *Len; // set length
 125:Core/Src/main.c ****   usbRXFlag =1; // set flag
 126:Core/Src/main.c **** }
 127:Core/Src/main.c **** /* USER CODE END 0 */
 128:Core/Src/main.c **** /**
 129:Core/Src/main.c ****   * @brief  The application entry point.
 130:Core/Src/main.c ****   * @retval int
 131:Core/Src/main.c ****   */
 132:Core/Src/main.c **** int main(void)
 133:Core/Src/main.c **** {
 134:Core/Src/main.c **** 
 135:Core/Src/main.c ****   /* USER CODE BEGIN 1 */
 136:Core/Src/main.c ****   /* USER CODE END 1 */
 137:Core/Src/main.c **** 
 138:Core/Src/main.c ****   /* MCU Configuration--------------------------------------------------------*/
 139:Core/Src/main.c **** 
 140:Core/Src/main.c ****   /* Reset of all peripherals, Initializes the Flash interface and the Systick. */
 141:Core/Src/main.c ****   HAL_Init();
 142:Core/Src/main.c **** 
 143:Core/Src/main.c ****   /* USER CODE BEGIN Init */
 144:Core/Src/main.c **** 
 145:Core/Src/main.c ****   /* USER CODE END Init */
 146:Core/Src/main.c **** 
 147:Core/Src/main.c ****   /* Configure the system clock */
ARM GAS  /tmp/ccuqHRfY.s 			page 4


 148:Core/Src/main.c ****   SystemClock_Config();
 149:Core/Src/main.c **** 
 150:Core/Src/main.c ****   /* USER CODE BEGIN SysInit */
 151:Core/Src/main.c **** 
 152:Core/Src/main.c ****   /* USER CODE END SysInit */
 153:Core/Src/main.c **** 
 154:Core/Src/main.c ****   /* Initialize all configured peripherals */
 155:Core/Src/main.c ****   MX_GPIO_Init();
 156:Core/Src/main.c ****   MX_USB_DEVICE_Init();
 157:Core/Src/main.c ****   MX_TIM1_Init();
 158:Core/Src/main.c ****   /* USER CODE BEGIN 2 */
 159:Core/Src/main.c ****   HAL_TIM_Base_Start(&htim1);
 160:Core/Src/main.c ****   
 161:Core/Src/main.c ****   /* USER CODE END 2 */
 162:Core/Src/main.c **** 
 163:Core/Src/main.c ****   /* Infinite loop */
 164:Core/Src/main.c ****   /* USER CODE BEGIN WHILE */
 165:Core/Src/main.c ****   while (1)
 166:Core/Src/main.c ****   {
 167:Core/Src/main.c ****     /* USER CODE END WHILE */
 168:Core/Src/main.c **** 
 169:Core/Src/main.c ****     /* USER CODE BEGIN 3 */
 170:Core/Src/main.c ****     if (usbRXFlag && usbRXBufLen){  // while ready and buffer has content
 171:Core/Src/main.c ****       usbTxBufLen = snprintf((char *)usbTxBuff, USB_BUFLEN, "[%s]:%d\r\n",usbRxBuff,usbRXBufLen);
 172:Core/Src/main.c ****       // the send buffer will copy the RX data, under the format "bytes received: length : content"
 173:Core/Src/main.c ****       CDC_Transmit_FS(usbTxBuff, USB_BUFLEN);
 174:Core/Src/main.c **** 
 175:Core/Src/main.c ****       memset(usbTxBuff,0,sizeof(usbTxBuff)); // reset tx buffer
 176:Core/Src/main.c ****       usbRXFlag = 0;
 177:Core/Src/main.c ****       usbRXBufLen = 0;
 178:Core/Src/main.c **** 
 179:Core/Src/main.c ****     }
 180:Core/Src/main.c ****   }
 181:Core/Src/main.c ****   /* USER CODE END 3 */
 182:Core/Src/main.c **** }
 183:Core/Src/main.c **** 
 184:Core/Src/main.c **** /**
 185:Core/Src/main.c ****   * @brief System Clock Configuration
 186:Core/Src/main.c ****   * @retval None
 187:Core/Src/main.c ****   */
 188:Core/Src/main.c **** void SystemClock_Config(void)
 189:Core/Src/main.c **** {
 190:Core/Src/main.c ****   RCC_OscInitTypeDef RCC_OscInitStruct = {0};
 191:Core/Src/main.c ****   RCC_ClkInitTypeDef RCC_ClkInitStruct = {0};
 192:Core/Src/main.c ****   RCC_PeriphCLKInitTypeDef PeriphClkInit = {0};
 193:Core/Src/main.c **** 
 194:Core/Src/main.c ****   /** Initializes the RCC Oscillators according to the specified parameters
 195:Core/Src/main.c ****   * in the RCC_OscInitTypeDef structure.
 196:Core/Src/main.c ****   */
 197:Core/Src/main.c ****   RCC_OscInitStruct.OscillatorType = RCC_OSCILLATORTYPE_HSE;
 198:Core/Src/main.c ****   RCC_OscInitStruct.HSEState = RCC_HSE_ON;
 199:Core/Src/main.c ****   RCC_OscInitStruct.HSEPredivValue = RCC_HSE_PREDIV_DIV1;
 200:Core/Src/main.c ****   RCC_OscInitStruct.HSIState = RCC_HSI_ON;
 201:Core/Src/main.c ****   RCC_OscInitStruct.PLL.PLLState = RCC_PLL_ON;
 202:Core/Src/main.c ****   RCC_OscInitStruct.PLL.PLLSource = RCC_PLLSOURCE_HSE;
 203:Core/Src/main.c ****   RCC_OscInitStruct.PLL.PLLMUL = RCC_PLL_MUL6;
 204:Core/Src/main.c ****   if (HAL_RCC_OscConfig(&RCC_OscInitStruct) != HAL_OK)
ARM GAS  /tmp/ccuqHRfY.s 			page 5


 205:Core/Src/main.c ****   {
 206:Core/Src/main.c ****     Error_Handler();
 207:Core/Src/main.c ****   }
 208:Core/Src/main.c **** 
 209:Core/Src/main.c ****   /** Initializes the CPU, AHB and APB buses clocks
 210:Core/Src/main.c ****   */
 211:Core/Src/main.c ****   RCC_ClkInitStruct.ClockType = RCC_CLOCKTYPE_HCLK|RCC_CLOCKTYPE_SYSCLK
 212:Core/Src/main.c ****                               |RCC_CLOCKTYPE_PCLK1|RCC_CLOCKTYPE_PCLK2;
 213:Core/Src/main.c ****   RCC_ClkInitStruct.SYSCLKSource = RCC_SYSCLKSOURCE_PLLCLK;
 214:Core/Src/main.c ****   RCC_ClkInitStruct.AHBCLKDivider = RCC_SYSCLK_DIV1;
 215:Core/Src/main.c ****   RCC_ClkInitStruct.APB1CLKDivider = RCC_HCLK_DIV4;
 216:Core/Src/main.c ****   RCC_ClkInitStruct.APB2CLKDivider = RCC_HCLK_DIV8;
 217:Core/Src/main.c **** 
 218:Core/Src/main.c ****   if (HAL_RCC_ClockConfig(&RCC_ClkInitStruct, FLASH_LATENCY_1) != HAL_OK)
 219:Core/Src/main.c ****   {
 220:Core/Src/main.c ****     Error_Handler();
 221:Core/Src/main.c ****   }
 222:Core/Src/main.c ****   PeriphClkInit.PeriphClockSelection = RCC_PERIPHCLK_USB;
 223:Core/Src/main.c ****   PeriphClkInit.UsbClockSelection = RCC_USBCLKSOURCE_PLL;
 224:Core/Src/main.c ****   if (HAL_RCCEx_PeriphCLKConfig(&PeriphClkInit) != HAL_OK)
 225:Core/Src/main.c ****   {
 226:Core/Src/main.c ****     Error_Handler();
 227:Core/Src/main.c ****   }
 228:Core/Src/main.c **** }
 229:Core/Src/main.c **** 
 230:Core/Src/main.c **** /**
 231:Core/Src/main.c ****   * @brief TIM1 Initialization Function
 232:Core/Src/main.c ****   * @param None
 233:Core/Src/main.c ****   * @retval None
 234:Core/Src/main.c ****   */
 235:Core/Src/main.c **** static void MX_TIM1_Init(void)
 236:Core/Src/main.c **** {
 237:Core/Src/main.c **** 
 238:Core/Src/main.c ****   /* USER CODE BEGIN TIM1_Init 0 */
 239:Core/Src/main.c **** 
 240:Core/Src/main.c ****   /* USER CODE END TIM1_Init 0 */
 241:Core/Src/main.c **** 
 242:Core/Src/main.c ****   TIM_ClockConfigTypeDef sClockSourceConfig = {0};
 243:Core/Src/main.c ****   TIM_MasterConfigTypeDef sMasterConfig = {0};
 244:Core/Src/main.c **** 
 245:Core/Src/main.c ****   /* USER CODE BEGIN TIM1_Init 1 */
 246:Core/Src/main.c **** 
 247:Core/Src/main.c ****   /* USER CODE END TIM1_Init 1 */
 248:Core/Src/main.c ****   htim1.Instance = TIM1;
 249:Core/Src/main.c ****   htim1.Init.Prescaler = 0;
 250:Core/Src/main.c ****   htim1.Init.CounterMode = TIM_COUNTERMODE_UP;
 251:Core/Src/main.c ****   htim1.Init.Period = 11;
 252:Core/Src/main.c ****   htim1.Init.ClockDivision = TIM_CLOCKDIVISION_DIV1;
 253:Core/Src/main.c ****   htim1.Init.RepetitionCounter = 0;
 254:Core/Src/main.c ****   htim1.Init.AutoReloadPreload = TIM_AUTORELOAD_PRELOAD_ENABLE;
 255:Core/Src/main.c ****   if (HAL_TIM_Base_Init(&htim1) != HAL_OK)
 256:Core/Src/main.c ****   {
 257:Core/Src/main.c ****     Error_Handler();
 258:Core/Src/main.c ****   }
 259:Core/Src/main.c ****   sClockSourceConfig.ClockSource = TIM_CLOCKSOURCE_INTERNAL;
 260:Core/Src/main.c ****   if (HAL_TIM_ConfigClockSource(&htim1, &sClockSourceConfig) != HAL_OK)
 261:Core/Src/main.c ****   {
ARM GAS  /tmp/ccuqHRfY.s 			page 6


 262:Core/Src/main.c ****     Error_Handler();
 263:Core/Src/main.c ****   }
 264:Core/Src/main.c ****   sMasterConfig.MasterOutputTrigger = TIM_TRGO_RESET;
 265:Core/Src/main.c ****   sMasterConfig.MasterSlaveMode = TIM_MASTERSLAVEMODE_DISABLE;
 266:Core/Src/main.c ****   if (HAL_TIMEx_MasterConfigSynchronization(&htim1, &sMasterConfig) != HAL_OK)
 267:Core/Src/main.c ****   {
 268:Core/Src/main.c ****     Error_Handler();
 269:Core/Src/main.c ****   }
 270:Core/Src/main.c ****   /* USER CODE BEGIN TIM1_Init 2 */
 271:Core/Src/main.c **** 
 272:Core/Src/main.c ****   /* USER CODE END TIM1_Init 2 */
 273:Core/Src/main.c **** 
 274:Core/Src/main.c **** }
 275:Core/Src/main.c **** 
 276:Core/Src/main.c **** /**
 277:Core/Src/main.c ****   * @brief GPIO Initialization Function
 278:Core/Src/main.c ****   * @param None
 279:Core/Src/main.c ****   * @retval None
 280:Core/Src/main.c ****   */
 281:Core/Src/main.c **** static void MX_GPIO_Init(void)
 282:Core/Src/main.c **** {
  26              		.loc 1 282 1 view -0
  27              		.cfi_startproc
  28              		@ args = 0, pretend = 0, frame = 32
  29              		@ frame_needed = 0, uses_anonymous_args = 0
  30 0000 2DE9F041 		push	{r4, r5, r6, r7, r8, lr}
  31              	.LCFI0:
  32              		.cfi_def_cfa_offset 24
  33              		.cfi_offset 4, -24
  34              		.cfi_offset 5, -20
  35              		.cfi_offset 6, -16
  36              		.cfi_offset 7, -12
  37              		.cfi_offset 8, -8
  38              		.cfi_offset 14, -4
  39 0004 88B0     		sub	sp, sp, #32
  40              	.LCFI1:
  41              		.cfi_def_cfa_offset 56
 283:Core/Src/main.c ****   GPIO_InitTypeDef GPIO_InitStruct = {0};
  42              		.loc 1 283 3 view .LVU1
  43              		.loc 1 283 20 is_stmt 0 view .LVU2
  44 0006 04AD     		add	r5, sp, #16
  45 0008 0024     		movs	r4, #0
  46 000a 0494     		str	r4, [sp, #16]
  47 000c 0594     		str	r4, [sp, #20]
  48 000e 0694     		str	r4, [sp, #24]
  49 0010 0794     		str	r4, [sp, #28]
 284:Core/Src/main.c ****   /* USER CODE BEGIN MX_GPIO_Init_1 */
 285:Core/Src/main.c **** 
 286:Core/Src/main.c ****   /* USER CODE END MX_GPIO_Init_1 */
 287:Core/Src/main.c **** 
 288:Core/Src/main.c ****   /* GPIO Ports Clock Enable */
 289:Core/Src/main.c ****   __HAL_RCC_GPIOD_CLK_ENABLE();
  50              		.loc 1 289 3 is_stmt 1 view .LVU3
  51              	.LBB4:
  52              		.loc 1 289 3 view .LVU4
  53              		.loc 1 289 3 view .LVU5
  54 0012 244B     		ldr	r3, .L3
ARM GAS  /tmp/ccuqHRfY.s 			page 7


  55 0014 9A69     		ldr	r2, [r3, #24]
  56 0016 42F02002 		orr	r2, r2, #32
  57 001a 9A61     		str	r2, [r3, #24]
  58              		.loc 1 289 3 view .LVU6
  59 001c 9A69     		ldr	r2, [r3, #24]
  60 001e 02F02002 		and	r2, r2, #32
  61 0022 0192     		str	r2, [sp, #4]
  62              		.loc 1 289 3 view .LVU7
  63 0024 019A     		ldr	r2, [sp, #4]
  64              	.LBE4:
  65              		.loc 1 289 3 view .LVU8
 290:Core/Src/main.c ****   __HAL_RCC_GPIOA_CLK_ENABLE();
  66              		.loc 1 290 3 view .LVU9
  67              	.LBB5:
  68              		.loc 1 290 3 view .LVU10
  69              		.loc 1 290 3 view .LVU11
  70 0026 9A69     		ldr	r2, [r3, #24]
  71 0028 42F00402 		orr	r2, r2, #4
  72 002c 9A61     		str	r2, [r3, #24]
  73              		.loc 1 290 3 view .LVU12
  74 002e 9A69     		ldr	r2, [r3, #24]
  75 0030 02F00402 		and	r2, r2, #4
  76 0034 0292     		str	r2, [sp, #8]
  77              		.loc 1 290 3 view .LVU13
  78 0036 029A     		ldr	r2, [sp, #8]
  79              	.LBE5:
  80              		.loc 1 290 3 view .LVU14
 291:Core/Src/main.c ****   __HAL_RCC_GPIOB_CLK_ENABLE();
  81              		.loc 1 291 3 view .LVU15
  82              	.LBB6:
  83              		.loc 1 291 3 view .LVU16
  84              		.loc 1 291 3 view .LVU17
  85 0038 9A69     		ldr	r2, [r3, #24]
  86 003a 42F00802 		orr	r2, r2, #8
  87 003e 9A61     		str	r2, [r3, #24]
  88              		.loc 1 291 3 view .LVU18
  89 0040 9B69     		ldr	r3, [r3, #24]
  90 0042 03F00803 		and	r3, r3, #8
  91 0046 0393     		str	r3, [sp, #12]
  92              		.loc 1 291 3 view .LVU19
  93 0048 039B     		ldr	r3, [sp, #12]
  94              	.LBE6:
  95              		.loc 1 291 3 view .LVU20
 292:Core/Src/main.c **** 
 293:Core/Src/main.c ****   /*Configure GPIO pin Output Level */
 294:Core/Src/main.c ****   HAL_GPIO_WritePin(GPIOA, GPIO_PIN_0|GPIO_PIN_1|GPIO_PIN_2|GPIO_PIN_3, GPIO_PIN_SET);
  96              		.loc 1 294 3 view .LVU21
  97 004a 174E     		ldr	r6, .L3+4
  98 004c 0122     		movs	r2, #1
  99 004e 0F21     		movs	r1, #15
 100 0050 3046     		mov	r0, r6
 101 0052 FFF7FEFF 		bl	HAL_GPIO_WritePin
 102              	.LVL0:
 295:Core/Src/main.c **** 
 296:Core/Src/main.c ****   /*Configure GPIO pin Output Level */
 297:Core/Src/main.c ****   HAL_GPIO_WritePin(GPIOA, GPIO_PIN_4|GPIO_PIN_5|GPIO_PIN_6|GPIO_PIN_7, GPIO_PIN_RESET);
 103              		.loc 1 297 3 view .LVU22
ARM GAS  /tmp/ccuqHRfY.s 			page 8


 104 0056 2246     		mov	r2, r4
 105 0058 F021     		movs	r1, #240
 106 005a 3046     		mov	r0, r6
 107 005c FFF7FEFF 		bl	HAL_GPIO_WritePin
 108              	.LVL1:
 298:Core/Src/main.c **** 
 299:Core/Src/main.c ****   /*Configure GPIO pin Output Level */
 300:Core/Src/main.c ****   HAL_GPIO_WritePin(GPIOB, GPIO_PIN_0|GPIO_PIN_1|GPIO_PIN_10|GPIO_PIN_11, GPIO_PIN_RESET);
 109              		.loc 1 300 3 view .LVU23
 110 0060 124F     		ldr	r7, .L3+8
 111 0062 2246     		mov	r2, r4
 112 0064 40F60341 		movw	r1, #3075
 113 0068 3846     		mov	r0, r7
 114 006a FFF7FEFF 		bl	HAL_GPIO_WritePin
 115              	.LVL2:
 301:Core/Src/main.c **** 
 302:Core/Src/main.c ****   /*Configure GPIO pins : PA0 PA1 PA2 PA3
 303:Core/Src/main.c ****                            PA4 PA5 PA6 PA7 */
 304:Core/Src/main.c ****   GPIO_InitStruct.Pin = GPIO_PIN_0|GPIO_PIN_1|GPIO_PIN_2|GPIO_PIN_3
 116              		.loc 1 304 3 view .LVU24
 117              		.loc 1 304 23 is_stmt 0 view .LVU25
 118 006e FF23     		movs	r3, #255
 119 0070 0493     		str	r3, [sp, #16]
 305:Core/Src/main.c ****                           |GPIO_PIN_4|GPIO_PIN_5|GPIO_PIN_6|GPIO_PIN_7;
 306:Core/Src/main.c ****   GPIO_InitStruct.Mode = GPIO_MODE_OUTPUT_PP;
 120              		.loc 1 306 3 is_stmt 1 view .LVU26
 121              		.loc 1 306 24 is_stmt 0 view .LVU27
 122 0072 4FF00108 		mov	r8, #1
 123 0076 CDF81480 		str	r8, [sp, #20]
 307:Core/Src/main.c ****   GPIO_InitStruct.Pull = GPIO_PULLDOWN;
 124              		.loc 1 307 3 is_stmt 1 view .LVU28
 125              		.loc 1 307 24 is_stmt 0 view .LVU29
 126 007a 0224     		movs	r4, #2
 127 007c 0694     		str	r4, [sp, #24]
 308:Core/Src/main.c ****   GPIO_InitStruct.Speed = GPIO_SPEED_FREQ_LOW;
 128              		.loc 1 308 3 is_stmt 1 view .LVU30
 129              		.loc 1 308 25 is_stmt 0 view .LVU31
 130 007e 0794     		str	r4, [sp, #28]
 309:Core/Src/main.c ****   HAL_GPIO_Init(GPIOA, &GPIO_InitStruct);
 131              		.loc 1 309 3 is_stmt 1 view .LVU32
 132 0080 2946     		mov	r1, r5
 133 0082 3046     		mov	r0, r6
 134 0084 FFF7FEFF 		bl	HAL_GPIO_Init
 135              	.LVL3:
 310:Core/Src/main.c **** 
 311:Core/Src/main.c ****   /*Configure GPIO pins : PB0 PB1 PB10 PB11 */
 312:Core/Src/main.c ****   GPIO_InitStruct.Pin = GPIO_PIN_0|GPIO_PIN_1|GPIO_PIN_10|GPIO_PIN_11;
 136              		.loc 1 312 3 view .LVU33
 137              		.loc 1 312 23 is_stmt 0 view .LVU34
 138 0088 40F60343 		movw	r3, #3075
 139 008c 0493     		str	r3, [sp, #16]
 313:Core/Src/main.c ****   GPIO_InitStruct.Mode = GPIO_MODE_OUTPUT_PP;
 140              		.loc 1 313 3 is_stmt 1 view .LVU35
 141              		.loc 1 313 24 is_stmt 0 view .LVU36
 142 008e CDF81480 		str	r8, [sp, #20]
 314:Core/Src/main.c ****   GPIO_InitStruct.Pull = GPIO_PULLDOWN;
 143              		.loc 1 314 3 is_stmt 1 view .LVU37
ARM GAS  /tmp/ccuqHRfY.s 			page 9


 144              		.loc 1 314 24 is_stmt 0 view .LVU38
 145 0092 0694     		str	r4, [sp, #24]
 315:Core/Src/main.c ****   GPIO_InitStruct.Speed = GPIO_SPEED_FREQ_LOW;
 146              		.loc 1 315 3 is_stmt 1 view .LVU39
 147              		.loc 1 315 25 is_stmt 0 view .LVU40
 148 0094 0794     		str	r4, [sp, #28]
 316:Core/Src/main.c ****   HAL_GPIO_Init(GPIOB, &GPIO_InitStruct);
 149              		.loc 1 316 3 is_stmt 1 view .LVU41
 150 0096 2946     		mov	r1, r5
 151 0098 3846     		mov	r0, r7
 152 009a FFF7FEFF 		bl	HAL_GPIO_Init
 153              	.LVL4:
 317:Core/Src/main.c **** 
 318:Core/Src/main.c ****   /* USER CODE BEGIN MX_GPIO_Init_2 */
 319:Core/Src/main.c **** 
 320:Core/Src/main.c ****   /* USER CODE END MX_GPIO_Init_2 */
 321:Core/Src/main.c **** }
 154              		.loc 1 321 1 is_stmt 0 view .LVU42
 155 009e 08B0     		add	sp, sp, #32
 156              	.LCFI2:
 157              		.cfi_def_cfa_offset 24
 158              		@ sp needed
 159 00a0 BDE8F081 		pop	{r4, r5, r6, r7, r8, pc}
 160              	.L4:
 161              		.align	2
 162              	.L3:
 163 00a4 00100240 		.word	1073876992
 164 00a8 00080140 		.word	1073809408
 165 00ac 000C0140 		.word	1073810432
 166              		.cfi_endproc
 167              	.LFE72:
 169              		.section	.text.USB_RXCallback,"ax",%progbits
 170              		.align	1
 171              		.global	USB_RXCallback
 172              		.syntax unified
 173              		.thumb
 174              		.thumb_func
 176              	USB_RXCallback:
 177              	.LVL5:
 178              	.LFB68:
 120:Core/Src/main.c ****   memset(usbRxBuff,0,sizeof(usbRxBuff)); // reset buffer
 179              		.loc 1 120 47 is_stmt 1 view -0
 180              		.cfi_startproc
 181              		@ args = 0, pretend = 0, frame = 0
 182              		@ frame_needed = 0, uses_anonymous_args = 0
 120:Core/Src/main.c ****   memset(usbRxBuff,0,sizeof(usbRxBuff)); // reset buffer
 183              		.loc 1 120 47 is_stmt 0 view .LVU44
 184 0000 70B5     		push	{r4, r5, r6, lr}
 185              	.LCFI3:
 186              		.cfi_def_cfa_offset 16
 187              		.cfi_offset 4, -16
 188              		.cfi_offset 5, -12
 189              		.cfi_offset 6, -8
 190              		.cfi_offset 14, -4
 191 0002 0646     		mov	r6, r0
 192 0004 0C46     		mov	r4, r1
 121:Core/Src/main.c ****   memcpy(usbRxBuff,Buf,*Len); // cpy buf to Rx buffer 
ARM GAS  /tmp/ccuqHRfY.s 			page 10


 193              		.loc 1 121 3 is_stmt 1 view .LVU45
 194 0006 094D     		ldr	r5, .L7
 195 0008 8022     		movs	r2, #128
 196 000a 0021     		movs	r1, #0
 197              	.LVL6:
 121:Core/Src/main.c ****   memcpy(usbRxBuff,Buf,*Len); // cpy buf to Rx buffer 
 198              		.loc 1 121 3 is_stmt 0 view .LVU46
 199 000c 2846     		mov	r0, r5
 200              	.LVL7:
 121:Core/Src/main.c ****   memcpy(usbRxBuff,Buf,*Len); // cpy buf to Rx buffer 
 201              		.loc 1 121 3 view .LVU47
 202 000e FFF7FEFF 		bl	memset
 203              	.LVL8:
 122:Core/Src/main.c ****   
 204              		.loc 1 122 3 is_stmt 1 view .LVU48
 205 0012 2268     		ldr	r2, [r4]
 206 0014 3146     		mov	r1, r6
 207 0016 2846     		mov	r0, r5
 208 0018 FFF7FEFF 		bl	memcpy
 209              	.LVL9:
 124:Core/Src/main.c ****   usbRXFlag =1; // set flag
 210              		.loc 1 124 3 view .LVU49
 124:Core/Src/main.c ****   usbRXFlag =1; // set flag
 211              		.loc 1 124 17 is_stmt 0 view .LVU50
 212 001c 2268     		ldr	r2, [r4]
 124:Core/Src/main.c ****   usbRXFlag =1; // set flag
 213              		.loc 1 124 15 view .LVU51
 214 001e 044B     		ldr	r3, .L7+4
 215 0020 1A80     		strh	r2, [r3]	@ movhi
 125:Core/Src/main.c **** }
 216              		.loc 1 125 3 is_stmt 1 view .LVU52
 125:Core/Src/main.c **** }
 217              		.loc 1 125 13 is_stmt 0 view .LVU53
 218 0022 044B     		ldr	r3, .L7+8
 219 0024 0122     		movs	r2, #1
 220 0026 1A70     		strb	r2, [r3]
 126:Core/Src/main.c **** /* USER CODE END 0 */
 221              		.loc 1 126 1 view .LVU54
 222 0028 70BD     		pop	{r4, r5, r6, pc}
 223              	.LVL10:
 224              	.L8:
 126:Core/Src/main.c **** /* USER CODE END 0 */
 225              		.loc 1 126 1 view .LVU55
 226 002a 00BF     		.align	2
 227              	.L7:
 228 002c 00000000 		.word	usbRxBuff
 229 0030 00000000 		.word	usbRXBufLen
 230 0034 00000000 		.word	usbRXFlag
 231              		.cfi_endproc
 232              	.LFE68:
 234              		.section	.text.DelayUS,"ax",%progbits
 235              		.align	1
 236              		.global	DelayUS
 237              		.syntax unified
 238              		.thumb
 239              		.thumb_func
 241              	DelayUS:
ARM GAS  /tmp/ccuqHRfY.s 			page 11


 242              	.LVL11:
 243              	.LFB75:
 322:Core/Src/main.c **** 
 323:Core/Src/main.c **** /* USER CODE BEGIN 4 */
 324:Core/Src/main.c **** void LCDWrite(uint16_t DigitPosition, uint8_t WriteValue){
 325:Core/Src/main.c ****     HAL_GPIO_WritePin(GPIOA,DigitPosition,GPIO_PIN_RESET); // enables the LED 
 326:Core/Src/main.c ****     LCD_LEDConfig(WriteValue); // draws the number
 327:Core/Src/main.c ****     HAL_GPIO_WritePin(GPIOA,DigitPosition,GPIO_PIN_SET); // disables the LED
 328:Core/Src/main.c **** }
 329:Core/Src/main.c **** void LCD_LEDConfig(uint8_t Value){
 330:Core/Src/main.c **** 
 331:Core/Src/main.c ****   for (int i = 0; i < LCDList[Value].size; i++){
 332:Core/Src/main.c ****     HAL_GPIO_WritePin(LCDList[Value].element[i].port,LCDList[Value].element[i].Pin,GPIO_PIN_SET);
 333:Core/Src/main.c ****     DelayUS(&htim1, 10);
 334:Core/Src/main.c ****     HAL_GPIO_WritePin(LCDList[Value].element[i].port,LCDList[Value].element[i].Pin,GPIO_PIN_RESET);
 335:Core/Src/main.c ****   }
 336:Core/Src/main.c **** }
 337:Core/Src/main.c **** 
 338:Core/Src/main.c **** void DelayUS(TIM_HandleTypeDef *tim , uint8_t time){
 244              		.loc 1 338 52 is_stmt 1 view -0
 245              		.cfi_startproc
 246              		@ args = 0, pretend = 0, frame = 0
 247              		@ frame_needed = 0, uses_anonymous_args = 0
 248              		@ link register save eliminated.
 339:Core/Src/main.c **** 
 340:Core/Src/main.c ****     __HAL_TIM_SET_COUNTER(tim, 0);
 249              		.loc 1 340 5 view .LVU57
 250 0000 0368     		ldr	r3, [r0]
 251 0002 0022     		movs	r2, #0
 252 0004 5A62     		str	r2, [r3, #36]
 341:Core/Src/main.c ****     while(__HAL_TIM_GET_COUNTER(tim) < 1){}
 253              		.loc 1 341 5 view .LVU58
 254              	.L10:
 255              		.loc 1 341 43 discriminator 1 view .LVU59
 256              		.loc 1 341 38 discriminator 1 view .LVU60
 257              		.loc 1 341 11 is_stmt 0 discriminator 1 view .LVU61
 258 0006 0368     		ldr	r3, [r0]
 259 0008 5B6A     		ldr	r3, [r3, #36]
 260              		.loc 1 341 38 discriminator 1 view .LVU62
 261 000a 002B     		cmp	r3, #0
 262 000c FBD0     		beq	.L10
 342:Core/Src/main.c **** }
 263              		.loc 1 342 1 view .LVU63
 264 000e 7047     		bx	lr
 265              		.cfi_endproc
 266              	.LFE75:
 268              		.section	.text.LCD_LEDConfig,"ax",%progbits
 269              		.align	1
 270              		.global	LCD_LEDConfig
 271              		.syntax unified
 272              		.thumb
 273              		.thumb_func
 275              	LCD_LEDConfig:
 276              	.LVL12:
 277              	.LFB74:
 329:Core/Src/main.c **** 
 278              		.loc 1 329 34 is_stmt 1 view -0
ARM GAS  /tmp/ccuqHRfY.s 			page 12


 279              		.cfi_startproc
 280              		@ args = 0, pretend = 0, frame = 0
 281              		@ frame_needed = 0, uses_anonymous_args = 0
 329:Core/Src/main.c **** 
 282              		.loc 1 329 34 is_stmt 0 view .LVU65
 283 0000 F8B5     		push	{r3, r4, r5, r6, r7, lr}
 284              	.LCFI4:
 285              		.cfi_def_cfa_offset 24
 286              		.cfi_offset 3, -24
 287              		.cfi_offset 4, -20
 288              		.cfi_offset 5, -16
 289              		.cfi_offset 6, -12
 290              		.cfi_offset 7, -8
 291              		.cfi_offset 14, -4
 292 0002 0646     		mov	r6, r0
 331:Core/Src/main.c ****     HAL_GPIO_WritePin(LCDList[Value].element[i].port,LCDList[Value].element[i].Pin,GPIO_PIN_SET);
 293              		.loc 1 331 3 is_stmt 1 view .LVU66
 294              	.LBB7:
 331:Core/Src/main.c ****     HAL_GPIO_WritePin(LCDList[Value].element[i].port,LCDList[Value].element[i].Pin,GPIO_PIN_SET);
 295              		.loc 1 331 8 view .LVU67
 296              	.LVL13:
 331:Core/Src/main.c ****     HAL_GPIO_WritePin(LCDList[Value].element[i].port,LCDList[Value].element[i].Pin,GPIO_PIN_SET);
 297              		.loc 1 331 12 is_stmt 0 view .LVU68
 298 0004 0024     		movs	r4, #0
 331:Core/Src/main.c ****     HAL_GPIO_WritePin(LCDList[Value].element[i].port,LCDList[Value].element[i].Pin,GPIO_PIN_SET);
 299              		.loc 1 331 3 view .LVU69
 300 0006 19E0     		b	.L12
 301              	.LVL14:
 302              	.L13:
 332:Core/Src/main.c ****     DelayUS(&htim1, 10);
 303              		.loc 1 332 5 is_stmt 1 view .LVU70
 332:Core/Src/main.c ****     DelayUS(&htim1, 10);
 304              		.loc 1 332 37 is_stmt 0 view .LVU71
 305 0008 104F     		ldr	r7, .L15
 306 000a 57F83630 		ldr	r3, [r7, r6, lsl #3]
 332:Core/Src/main.c ****     DelayUS(&htim1, 10);
 307              		.loc 1 332 45 view .LVU72
 308 000e E500     		lsls	r5, r4, #3
 309 0010 03EBC401 		add	r1, r3, r4, lsl #3
 332:Core/Src/main.c ****     DelayUS(&htim1, 10);
 310              		.loc 1 332 5 view .LVU73
 311 0014 0122     		movs	r2, #1
 312 0016 8988     		ldrh	r1, [r1, #4]
 313 0018 53F83400 		ldr	r0, [r3, r4, lsl #3]
 314 001c FFF7FEFF 		bl	HAL_GPIO_WritePin
 315              	.LVL15:
 333:Core/Src/main.c ****     HAL_GPIO_WritePin(LCDList[Value].element[i].port,LCDList[Value].element[i].Pin,GPIO_PIN_RESET);
 316              		.loc 1 333 5 is_stmt 1 view .LVU74
 317 0020 0A21     		movs	r1, #10
 318 0022 0B48     		ldr	r0, .L15+4
 319 0024 FFF7FEFF 		bl	DelayUS
 320              	.LVL16:
 334:Core/Src/main.c ****   }
 321              		.loc 1 334 5 view .LVU75
 334:Core/Src/main.c ****   }
 322              		.loc 1 334 37 is_stmt 0 view .LVU76
 323 0028 57F83630 		ldr	r3, [r7, r6, lsl #3]
ARM GAS  /tmp/ccuqHRfY.s 			page 13


 334:Core/Src/main.c ****   }
 324              		.loc 1 334 45 view .LVU77
 325 002c 1D44     		add	r5, r5, r3
 334:Core/Src/main.c ****   }
 326              		.loc 1 334 5 view .LVU78
 327 002e 0022     		movs	r2, #0
 328 0030 A988     		ldrh	r1, [r5, #4]
 329 0032 53F83400 		ldr	r0, [r3, r4, lsl #3]
 330 0036 FFF7FEFF 		bl	HAL_GPIO_WritePin
 331              	.LVL17:
 331:Core/Src/main.c ****     HAL_GPIO_WritePin(LCDList[Value].element[i].port,LCDList[Value].element[i].Pin,GPIO_PIN_SET);
 332              		.loc 1 331 45 is_stmt 1 discriminator 3 view .LVU79
 333 003a 0134     		adds	r4, r4, #1
 334              	.LVL18:
 335              	.L12:
 331:Core/Src/main.c ****     HAL_GPIO_WritePin(LCDList[Value].element[i].port,LCDList[Value].element[i].Pin,GPIO_PIN_SET);
 336              		.loc 1 331 21 discriminator 1 view .LVU80
 331:Core/Src/main.c ****     HAL_GPIO_WritePin(LCDList[Value].element[i].port,LCDList[Value].element[i].Pin,GPIO_PIN_SET);
 337              		.loc 1 331 37 is_stmt 0 discriminator 1 view .LVU81
 338 003c 034B     		ldr	r3, .L15
 339 003e 03EBC603 		add	r3, r3, r6, lsl #3
 340 0042 1B79     		ldrb	r3, [r3, #4]	@ zero_extendqisi2
 331:Core/Src/main.c ****     HAL_GPIO_WritePin(LCDList[Value].element[i].port,LCDList[Value].element[i].Pin,GPIO_PIN_SET);
 341              		.loc 1 331 21 discriminator 1 view .LVU82
 342 0044 A342     		cmp	r3, r4
 343 0046 DFDC     		bgt	.L13
 344              	.LBE7:
 336:Core/Src/main.c **** 
 345              		.loc 1 336 1 view .LVU83
 346 0048 F8BD     		pop	{r3, r4, r5, r6, r7, pc}
 347              	.LVL19:
 348              	.L16:
 336:Core/Src/main.c **** 
 349              		.loc 1 336 1 view .LVU84
 350 004a 00BF     		.align	2
 351              	.L15:
 352 004c 00000000 		.word	LCDList
 353 0050 00000000 		.word	htim1
 354              		.cfi_endproc
 355              	.LFE74:
 357              		.section	.text.LCDWrite,"ax",%progbits
 358              		.align	1
 359              		.global	LCDWrite
 360              		.syntax unified
 361              		.thumb
 362              		.thumb_func
 364              	LCDWrite:
 365              	.LVL20:
 366              	.LFB73:
 324:Core/Src/main.c ****     HAL_GPIO_WritePin(GPIOA,DigitPosition,GPIO_PIN_RESET); // enables the LED 
 367              		.loc 1 324 58 is_stmt 1 view -0
 368              		.cfi_startproc
 369              		@ args = 0, pretend = 0, frame = 0
 370              		@ frame_needed = 0, uses_anonymous_args = 0
 324:Core/Src/main.c ****     HAL_GPIO_WritePin(GPIOA,DigitPosition,GPIO_PIN_RESET); // enables the LED 
 371              		.loc 1 324 58 is_stmt 0 view .LVU86
 372 0000 70B5     		push	{r4, r5, r6, lr}
ARM GAS  /tmp/ccuqHRfY.s 			page 14


 373              	.LCFI5:
 374              		.cfi_def_cfa_offset 16
 375              		.cfi_offset 4, -16
 376              		.cfi_offset 5, -12
 377              		.cfi_offset 6, -8
 378              		.cfi_offset 14, -4
 379 0002 0546     		mov	r5, r0
 380 0004 0E46     		mov	r6, r1
 325:Core/Src/main.c ****     LCD_LEDConfig(WriteValue); // draws the number
 381              		.loc 1 325 5 is_stmt 1 view .LVU87
 382 0006 074C     		ldr	r4, .L19
 383 0008 0022     		movs	r2, #0
 384 000a 0146     		mov	r1, r0
 385              	.LVL21:
 325:Core/Src/main.c ****     LCD_LEDConfig(WriteValue); // draws the number
 386              		.loc 1 325 5 is_stmt 0 view .LVU88
 387 000c 2046     		mov	r0, r4
 388              	.LVL22:
 325:Core/Src/main.c ****     LCD_LEDConfig(WriteValue); // draws the number
 389              		.loc 1 325 5 view .LVU89
 390 000e FFF7FEFF 		bl	HAL_GPIO_WritePin
 391              	.LVL23:
 326:Core/Src/main.c ****     HAL_GPIO_WritePin(GPIOA,DigitPosition,GPIO_PIN_SET); // disables the LED
 392              		.loc 1 326 5 is_stmt 1 view .LVU90
 393 0012 3046     		mov	r0, r6
 394 0014 FFF7FEFF 		bl	LCD_LEDConfig
 395              	.LVL24:
 327:Core/Src/main.c **** }
 396              		.loc 1 327 5 view .LVU91
 397 0018 0122     		movs	r2, #1
 398 001a 2946     		mov	r1, r5
 399 001c 2046     		mov	r0, r4
 400 001e FFF7FEFF 		bl	HAL_GPIO_WritePin
 401              	.LVL25:
 328:Core/Src/main.c **** void LCD_LEDConfig(uint8_t Value){
 402              		.loc 1 328 1 is_stmt 0 view .LVU92
 403 0022 70BD     		pop	{r4, r5, r6, pc}
 404              	.LVL26:
 405              	.L20:
 328:Core/Src/main.c **** void LCD_LEDConfig(uint8_t Value){
 406              		.loc 1 328 1 view .LVU93
 407              		.align	2
 408              	.L19:
 409 0024 00080140 		.word	1073809408
 410              		.cfi_endproc
 411              	.LFE73:
 413              		.section	.text.Error_Handler,"ax",%progbits
 414              		.align	1
 415              		.global	Error_Handler
 416              		.syntax unified
 417              		.thumb
 418              		.thumb_func
 420              	Error_Handler:
 421              	.LFB76:
 343:Core/Src/main.c **** /* USER CODE END 4 */
 344:Core/Src/main.c **** 
 345:Core/Src/main.c **** /**
ARM GAS  /tmp/ccuqHRfY.s 			page 15


 346:Core/Src/main.c ****   * @brief  This function is executed in case of error occurrence.
 347:Core/Src/main.c ****   * @retval None
 348:Core/Src/main.c ****   */
 349:Core/Src/main.c **** void Error_Handler(void)
 350:Core/Src/main.c **** {
 422              		.loc 1 350 1 is_stmt 1 view -0
 423              		.cfi_startproc
 424              		@ Volatile: function does not return.
 425              		@ args = 0, pretend = 0, frame = 0
 426              		@ frame_needed = 0, uses_anonymous_args = 0
 427              		@ link register save eliminated.
 351:Core/Src/main.c ****   /* USER CODE BEGIN Error_Handler_Debug */
 352:Core/Src/main.c ****   /* User can add his own implementation to report the HAL error return state */
 353:Core/Src/main.c ****   __disable_irq();
 428              		.loc 1 353 3 view .LVU95
 429              	.LBB8:
 430              	.LBI8:
 431              		.file 2 "Drivers/CMSIS/Include/cmsis_gcc.h"
   1:Drivers/CMSIS/Include/cmsis_gcc.h **** /**************************************************************************//**
   2:Drivers/CMSIS/Include/cmsis_gcc.h ****  * @file     cmsis_gcc.h
   3:Drivers/CMSIS/Include/cmsis_gcc.h ****  * @brief    CMSIS compiler GCC header file
   4:Drivers/CMSIS/Include/cmsis_gcc.h ****  * @version  V5.0.4
   5:Drivers/CMSIS/Include/cmsis_gcc.h ****  * @date     09. April 2018
   6:Drivers/CMSIS/Include/cmsis_gcc.h ****  ******************************************************************************/
   7:Drivers/CMSIS/Include/cmsis_gcc.h **** /*
   8:Drivers/CMSIS/Include/cmsis_gcc.h ****  * Copyright (c) 2009-2018 Arm Limited. All rights reserved.
   9:Drivers/CMSIS/Include/cmsis_gcc.h ****  *
  10:Drivers/CMSIS/Include/cmsis_gcc.h ****  * SPDX-License-Identifier: Apache-2.0
  11:Drivers/CMSIS/Include/cmsis_gcc.h ****  *
  12:Drivers/CMSIS/Include/cmsis_gcc.h ****  * Licensed under the Apache License, Version 2.0 (the License); you may
  13:Drivers/CMSIS/Include/cmsis_gcc.h ****  * not use this file except in compliance with the License.
  14:Drivers/CMSIS/Include/cmsis_gcc.h ****  * You may obtain a copy of the License at
  15:Drivers/CMSIS/Include/cmsis_gcc.h ****  *
  16:Drivers/CMSIS/Include/cmsis_gcc.h ****  * www.apache.org/licenses/LICENSE-2.0
  17:Drivers/CMSIS/Include/cmsis_gcc.h ****  *
  18:Drivers/CMSIS/Include/cmsis_gcc.h ****  * Unless required by applicable law or agreed to in writing, software
  19:Drivers/CMSIS/Include/cmsis_gcc.h ****  * distributed under the License is distributed on an AS IS BASIS, WITHOUT
  20:Drivers/CMSIS/Include/cmsis_gcc.h ****  * WARRANTIES OR CONDITIONS OF ANY KIND, either express or implied.
  21:Drivers/CMSIS/Include/cmsis_gcc.h ****  * See the License for the specific language governing permissions and
  22:Drivers/CMSIS/Include/cmsis_gcc.h ****  * limitations under the License.
  23:Drivers/CMSIS/Include/cmsis_gcc.h ****  */
  24:Drivers/CMSIS/Include/cmsis_gcc.h **** 
  25:Drivers/CMSIS/Include/cmsis_gcc.h **** #ifndef __CMSIS_GCC_H
  26:Drivers/CMSIS/Include/cmsis_gcc.h **** #define __CMSIS_GCC_H
  27:Drivers/CMSIS/Include/cmsis_gcc.h **** 
  28:Drivers/CMSIS/Include/cmsis_gcc.h **** /* ignore some GCC warnings */
  29:Drivers/CMSIS/Include/cmsis_gcc.h **** #pragma GCC diagnostic push
  30:Drivers/CMSIS/Include/cmsis_gcc.h **** #pragma GCC diagnostic ignored "-Wsign-conversion"
  31:Drivers/CMSIS/Include/cmsis_gcc.h **** #pragma GCC diagnostic ignored "-Wconversion"
  32:Drivers/CMSIS/Include/cmsis_gcc.h **** #pragma GCC diagnostic ignored "-Wunused-parameter"
  33:Drivers/CMSIS/Include/cmsis_gcc.h **** 
  34:Drivers/CMSIS/Include/cmsis_gcc.h **** /* Fallback for __has_builtin */
  35:Drivers/CMSIS/Include/cmsis_gcc.h **** #ifndef __has_builtin
  36:Drivers/CMSIS/Include/cmsis_gcc.h ****   #define __has_builtin(x) (0)
  37:Drivers/CMSIS/Include/cmsis_gcc.h **** #endif
  38:Drivers/CMSIS/Include/cmsis_gcc.h **** 
  39:Drivers/CMSIS/Include/cmsis_gcc.h **** /* CMSIS compiler specific defines */
ARM GAS  /tmp/ccuqHRfY.s 			page 16


  40:Drivers/CMSIS/Include/cmsis_gcc.h **** #ifndef   __ASM
  41:Drivers/CMSIS/Include/cmsis_gcc.h ****   #define __ASM                                  __asm
  42:Drivers/CMSIS/Include/cmsis_gcc.h **** #endif
  43:Drivers/CMSIS/Include/cmsis_gcc.h **** #ifndef   __INLINE
  44:Drivers/CMSIS/Include/cmsis_gcc.h ****   #define __INLINE                               inline
  45:Drivers/CMSIS/Include/cmsis_gcc.h **** #endif
  46:Drivers/CMSIS/Include/cmsis_gcc.h **** #ifndef   __STATIC_INLINE
  47:Drivers/CMSIS/Include/cmsis_gcc.h ****   #define __STATIC_INLINE                        static inline
  48:Drivers/CMSIS/Include/cmsis_gcc.h **** #endif
  49:Drivers/CMSIS/Include/cmsis_gcc.h **** #ifndef   __STATIC_FORCEINLINE                 
  50:Drivers/CMSIS/Include/cmsis_gcc.h ****   #define __STATIC_FORCEINLINE                   __attribute__((always_inline)) static inline
  51:Drivers/CMSIS/Include/cmsis_gcc.h **** #endif                                           
  52:Drivers/CMSIS/Include/cmsis_gcc.h **** #ifndef   __NO_RETURN
  53:Drivers/CMSIS/Include/cmsis_gcc.h ****   #define __NO_RETURN                            __attribute__((__noreturn__))
  54:Drivers/CMSIS/Include/cmsis_gcc.h **** #endif
  55:Drivers/CMSIS/Include/cmsis_gcc.h **** #ifndef   __USED
  56:Drivers/CMSIS/Include/cmsis_gcc.h ****   #define __USED                                 __attribute__((used))
  57:Drivers/CMSIS/Include/cmsis_gcc.h **** #endif
  58:Drivers/CMSIS/Include/cmsis_gcc.h **** #ifndef   __WEAK
  59:Drivers/CMSIS/Include/cmsis_gcc.h ****   #define __WEAK                                 __attribute__((weak))
  60:Drivers/CMSIS/Include/cmsis_gcc.h **** #endif
  61:Drivers/CMSIS/Include/cmsis_gcc.h **** #ifndef   __PACKED
  62:Drivers/CMSIS/Include/cmsis_gcc.h ****   #define __PACKED                               __attribute__((packed, aligned(1)))
  63:Drivers/CMSIS/Include/cmsis_gcc.h **** #endif
  64:Drivers/CMSIS/Include/cmsis_gcc.h **** #ifndef   __PACKED_STRUCT
  65:Drivers/CMSIS/Include/cmsis_gcc.h ****   #define __PACKED_STRUCT                        struct __attribute__((packed, aligned(1)))
  66:Drivers/CMSIS/Include/cmsis_gcc.h **** #endif
  67:Drivers/CMSIS/Include/cmsis_gcc.h **** #ifndef   __PACKED_UNION
  68:Drivers/CMSIS/Include/cmsis_gcc.h ****   #define __PACKED_UNION                         union __attribute__((packed, aligned(1)))
  69:Drivers/CMSIS/Include/cmsis_gcc.h **** #endif
  70:Drivers/CMSIS/Include/cmsis_gcc.h **** #ifndef   __UNALIGNED_UINT32        /* deprecated */
  71:Drivers/CMSIS/Include/cmsis_gcc.h ****   #pragma GCC diagnostic push
  72:Drivers/CMSIS/Include/cmsis_gcc.h ****   #pragma GCC diagnostic ignored "-Wpacked"
  73:Drivers/CMSIS/Include/cmsis_gcc.h ****   #pragma GCC diagnostic ignored "-Wattributes"
  74:Drivers/CMSIS/Include/cmsis_gcc.h ****   struct __attribute__((packed)) T_UINT32 { uint32_t v; };
  75:Drivers/CMSIS/Include/cmsis_gcc.h ****   #pragma GCC diagnostic pop
  76:Drivers/CMSIS/Include/cmsis_gcc.h ****   #define __UNALIGNED_UINT32(x)                  (((struct T_UINT32 *)(x))->v)
  77:Drivers/CMSIS/Include/cmsis_gcc.h **** #endif
  78:Drivers/CMSIS/Include/cmsis_gcc.h **** #ifndef   __UNALIGNED_UINT16_WRITE
  79:Drivers/CMSIS/Include/cmsis_gcc.h ****   #pragma GCC diagnostic push
  80:Drivers/CMSIS/Include/cmsis_gcc.h ****   #pragma GCC diagnostic ignored "-Wpacked"
  81:Drivers/CMSIS/Include/cmsis_gcc.h ****   #pragma GCC diagnostic ignored "-Wattributes"
  82:Drivers/CMSIS/Include/cmsis_gcc.h ****   __PACKED_STRUCT T_UINT16_WRITE { uint16_t v; };
  83:Drivers/CMSIS/Include/cmsis_gcc.h ****   #pragma GCC diagnostic pop
  84:Drivers/CMSIS/Include/cmsis_gcc.h ****   #define __UNALIGNED_UINT16_WRITE(addr, val)    (void)((((struct T_UINT16_WRITE *)(void *)(addr))-
  85:Drivers/CMSIS/Include/cmsis_gcc.h **** #endif
  86:Drivers/CMSIS/Include/cmsis_gcc.h **** #ifndef   __UNALIGNED_UINT16_READ
  87:Drivers/CMSIS/Include/cmsis_gcc.h ****   #pragma GCC diagnostic push
  88:Drivers/CMSIS/Include/cmsis_gcc.h ****   #pragma GCC diagnostic ignored "-Wpacked"
  89:Drivers/CMSIS/Include/cmsis_gcc.h ****   #pragma GCC diagnostic ignored "-Wattributes"
  90:Drivers/CMSIS/Include/cmsis_gcc.h ****   __PACKED_STRUCT T_UINT16_READ { uint16_t v; };
  91:Drivers/CMSIS/Include/cmsis_gcc.h ****   #pragma GCC diagnostic pop
  92:Drivers/CMSIS/Include/cmsis_gcc.h ****   #define __UNALIGNED_UINT16_READ(addr)          (((const struct T_UINT16_READ *)(const void *)(add
  93:Drivers/CMSIS/Include/cmsis_gcc.h **** #endif
  94:Drivers/CMSIS/Include/cmsis_gcc.h **** #ifndef   __UNALIGNED_UINT32_WRITE
  95:Drivers/CMSIS/Include/cmsis_gcc.h ****   #pragma GCC diagnostic push
  96:Drivers/CMSIS/Include/cmsis_gcc.h ****   #pragma GCC diagnostic ignored "-Wpacked"
ARM GAS  /tmp/ccuqHRfY.s 			page 17


  97:Drivers/CMSIS/Include/cmsis_gcc.h ****   #pragma GCC diagnostic ignored "-Wattributes"
  98:Drivers/CMSIS/Include/cmsis_gcc.h ****   __PACKED_STRUCT T_UINT32_WRITE { uint32_t v; };
  99:Drivers/CMSIS/Include/cmsis_gcc.h ****   #pragma GCC diagnostic pop
 100:Drivers/CMSIS/Include/cmsis_gcc.h ****   #define __UNALIGNED_UINT32_WRITE(addr, val)    (void)((((struct T_UINT32_WRITE *)(void *)(addr))-
 101:Drivers/CMSIS/Include/cmsis_gcc.h **** #endif
 102:Drivers/CMSIS/Include/cmsis_gcc.h **** #ifndef   __UNALIGNED_UINT32_READ
 103:Drivers/CMSIS/Include/cmsis_gcc.h ****   #pragma GCC diagnostic push
 104:Drivers/CMSIS/Include/cmsis_gcc.h ****   #pragma GCC diagnostic ignored "-Wpacked"
 105:Drivers/CMSIS/Include/cmsis_gcc.h ****   #pragma GCC diagnostic ignored "-Wattributes"
 106:Drivers/CMSIS/Include/cmsis_gcc.h ****   __PACKED_STRUCT T_UINT32_READ { uint32_t v; };
 107:Drivers/CMSIS/Include/cmsis_gcc.h ****   #pragma GCC diagnostic pop
 108:Drivers/CMSIS/Include/cmsis_gcc.h ****   #define __UNALIGNED_UINT32_READ(addr)          (((const struct T_UINT32_READ *)(const void *)(add
 109:Drivers/CMSIS/Include/cmsis_gcc.h **** #endif
 110:Drivers/CMSIS/Include/cmsis_gcc.h **** #ifndef   __ALIGNED
 111:Drivers/CMSIS/Include/cmsis_gcc.h ****   #define __ALIGNED(x)                           __attribute__((aligned(x)))
 112:Drivers/CMSIS/Include/cmsis_gcc.h **** #endif
 113:Drivers/CMSIS/Include/cmsis_gcc.h **** #ifndef   __RESTRICT
 114:Drivers/CMSIS/Include/cmsis_gcc.h ****   #define __RESTRICT                             __restrict
 115:Drivers/CMSIS/Include/cmsis_gcc.h **** #endif
 116:Drivers/CMSIS/Include/cmsis_gcc.h **** 
 117:Drivers/CMSIS/Include/cmsis_gcc.h **** 
 118:Drivers/CMSIS/Include/cmsis_gcc.h **** /* ###########################  Core Function Access  ########################### */
 119:Drivers/CMSIS/Include/cmsis_gcc.h **** /** \ingroup  CMSIS_Core_FunctionInterface
 120:Drivers/CMSIS/Include/cmsis_gcc.h ****     \defgroup CMSIS_Core_RegAccFunctions CMSIS Core Register Access Functions
 121:Drivers/CMSIS/Include/cmsis_gcc.h ****   @{
 122:Drivers/CMSIS/Include/cmsis_gcc.h ****  */
 123:Drivers/CMSIS/Include/cmsis_gcc.h **** 
 124:Drivers/CMSIS/Include/cmsis_gcc.h **** /**
 125:Drivers/CMSIS/Include/cmsis_gcc.h ****   \brief   Enable IRQ Interrupts
 126:Drivers/CMSIS/Include/cmsis_gcc.h ****   \details Enables IRQ interrupts by clearing the I-bit in the CPSR.
 127:Drivers/CMSIS/Include/cmsis_gcc.h ****            Can only be executed in Privileged modes.
 128:Drivers/CMSIS/Include/cmsis_gcc.h ****  */
 129:Drivers/CMSIS/Include/cmsis_gcc.h **** __STATIC_FORCEINLINE void __enable_irq(void)
 130:Drivers/CMSIS/Include/cmsis_gcc.h **** {
 131:Drivers/CMSIS/Include/cmsis_gcc.h ****   __ASM volatile ("cpsie i" : : : "memory");
 132:Drivers/CMSIS/Include/cmsis_gcc.h **** }
 133:Drivers/CMSIS/Include/cmsis_gcc.h **** 
 134:Drivers/CMSIS/Include/cmsis_gcc.h **** 
 135:Drivers/CMSIS/Include/cmsis_gcc.h **** /**
 136:Drivers/CMSIS/Include/cmsis_gcc.h ****   \brief   Disable IRQ Interrupts
 137:Drivers/CMSIS/Include/cmsis_gcc.h ****   \details Disables IRQ interrupts by setting the I-bit in the CPSR.
 138:Drivers/CMSIS/Include/cmsis_gcc.h ****            Can only be executed in Privileged modes.
 139:Drivers/CMSIS/Include/cmsis_gcc.h ****  */
 140:Drivers/CMSIS/Include/cmsis_gcc.h **** __STATIC_FORCEINLINE void __disable_irq(void)
 432              		.loc 2 140 27 view .LVU96
 433              	.LBB9:
 141:Drivers/CMSIS/Include/cmsis_gcc.h **** {
 142:Drivers/CMSIS/Include/cmsis_gcc.h ****   __ASM volatile ("cpsid i" : : : "memory");
 434              		.loc 2 142 3 view .LVU97
 435              		.syntax unified
 436              	@ 142 "Drivers/CMSIS/Include/cmsis_gcc.h" 1
 437 0000 72B6     		cpsid i
 438              	@ 0 "" 2
 439              		.thumb
 440              		.syntax unified
 441              	.L22:
 442              	.LBE9:
ARM GAS  /tmp/ccuqHRfY.s 			page 18


 443              	.LBE8:
 354:Core/Src/main.c ****   while (1)
 444              		.loc 1 354 3 view .LVU98
 355:Core/Src/main.c ****   {
 356:Core/Src/main.c ****   }
 445              		.loc 1 356 3 view .LVU99
 354:Core/Src/main.c ****   while (1)
 446              		.loc 1 354 9 view .LVU100
 447 0002 FEE7     		b	.L22
 448              		.cfi_endproc
 449              	.LFE76:
 451              		.section	.text.MX_TIM1_Init,"ax",%progbits
 452              		.align	1
 453              		.syntax unified
 454              		.thumb
 455              		.thumb_func
 457              	MX_TIM1_Init:
 458              	.LFB71:
 236:Core/Src/main.c **** 
 459              		.loc 1 236 1 view -0
 460              		.cfi_startproc
 461              		@ args = 0, pretend = 0, frame = 24
 462              		@ frame_needed = 0, uses_anonymous_args = 0
 463 0000 00B5     		push	{lr}
 464              	.LCFI6:
 465              		.cfi_def_cfa_offset 4
 466              		.cfi_offset 14, -4
 467 0002 87B0     		sub	sp, sp, #28
 468              	.LCFI7:
 469              		.cfi_def_cfa_offset 32
 242:Core/Src/main.c ****   TIM_MasterConfigTypeDef sMasterConfig = {0};
 470              		.loc 1 242 3 view .LVU102
 242:Core/Src/main.c ****   TIM_MasterConfigTypeDef sMasterConfig = {0};
 471              		.loc 1 242 26 is_stmt 0 view .LVU103
 472 0004 0023     		movs	r3, #0
 473 0006 0293     		str	r3, [sp, #8]
 474 0008 0393     		str	r3, [sp, #12]
 475 000a 0493     		str	r3, [sp, #16]
 476 000c 0593     		str	r3, [sp, #20]
 243:Core/Src/main.c **** 
 477              		.loc 1 243 3 is_stmt 1 view .LVU104
 243:Core/Src/main.c **** 
 478              		.loc 1 243 27 is_stmt 0 view .LVU105
 479 000e 0093     		str	r3, [sp]
 480 0010 0193     		str	r3, [sp, #4]
 248:Core/Src/main.c ****   htim1.Init.Prescaler = 0;
 481              		.loc 1 248 3 is_stmt 1 view .LVU106
 248:Core/Src/main.c ****   htim1.Init.Prescaler = 0;
 482              		.loc 1 248 18 is_stmt 0 view .LVU107
 483 0012 1248     		ldr	r0, .L31
 484 0014 124A     		ldr	r2, .L31+4
 485 0016 0260     		str	r2, [r0]
 249:Core/Src/main.c ****   htim1.Init.CounterMode = TIM_COUNTERMODE_UP;
 486              		.loc 1 249 3 is_stmt 1 view .LVU108
 249:Core/Src/main.c ****   htim1.Init.CounterMode = TIM_COUNTERMODE_UP;
 487              		.loc 1 249 24 is_stmt 0 view .LVU109
 488 0018 4360     		str	r3, [r0, #4]
ARM GAS  /tmp/ccuqHRfY.s 			page 19


 250:Core/Src/main.c ****   htim1.Init.Period = 11;
 489              		.loc 1 250 3 is_stmt 1 view .LVU110
 250:Core/Src/main.c ****   htim1.Init.Period = 11;
 490              		.loc 1 250 26 is_stmt 0 view .LVU111
 491 001a 8360     		str	r3, [r0, #8]
 251:Core/Src/main.c ****   htim1.Init.ClockDivision = TIM_CLOCKDIVISION_DIV1;
 492              		.loc 1 251 3 is_stmt 1 view .LVU112
 251:Core/Src/main.c ****   htim1.Init.ClockDivision = TIM_CLOCKDIVISION_DIV1;
 493              		.loc 1 251 21 is_stmt 0 view .LVU113
 494 001c 0B22     		movs	r2, #11
 495 001e C260     		str	r2, [r0, #12]
 252:Core/Src/main.c ****   htim1.Init.RepetitionCounter = 0;
 496              		.loc 1 252 3 is_stmt 1 view .LVU114
 252:Core/Src/main.c ****   htim1.Init.RepetitionCounter = 0;
 497              		.loc 1 252 28 is_stmt 0 view .LVU115
 498 0020 0361     		str	r3, [r0, #16]
 253:Core/Src/main.c ****   htim1.Init.AutoReloadPreload = TIM_AUTORELOAD_PRELOAD_ENABLE;
 499              		.loc 1 253 3 is_stmt 1 view .LVU116
 253:Core/Src/main.c ****   htim1.Init.AutoReloadPreload = TIM_AUTORELOAD_PRELOAD_ENABLE;
 500              		.loc 1 253 32 is_stmt 0 view .LVU117
 501 0022 4361     		str	r3, [r0, #20]
 254:Core/Src/main.c ****   if (HAL_TIM_Base_Init(&htim1) != HAL_OK)
 502              		.loc 1 254 3 is_stmt 1 view .LVU118
 254:Core/Src/main.c ****   if (HAL_TIM_Base_Init(&htim1) != HAL_OK)
 503              		.loc 1 254 32 is_stmt 0 view .LVU119
 504 0024 8023     		movs	r3, #128
 505 0026 8361     		str	r3, [r0, #24]
 255:Core/Src/main.c ****   {
 506              		.loc 1 255 3 is_stmt 1 view .LVU120
 255:Core/Src/main.c ****   {
 507              		.loc 1 255 7 is_stmt 0 view .LVU121
 508 0028 FFF7FEFF 		bl	HAL_TIM_Base_Init
 509              	.LVL27:
 255:Core/Src/main.c ****   {
 510              		.loc 1 255 6 discriminator 1 view .LVU122
 511 002c 80B9     		cbnz	r0, .L28
 259:Core/Src/main.c ****   if (HAL_TIM_ConfigClockSource(&htim1, &sClockSourceConfig) != HAL_OK)
 512              		.loc 1 259 3 is_stmt 1 view .LVU123
 259:Core/Src/main.c ****   if (HAL_TIM_ConfigClockSource(&htim1, &sClockSourceConfig) != HAL_OK)
 513              		.loc 1 259 34 is_stmt 0 view .LVU124
 514 002e 4FF48053 		mov	r3, #4096
 515 0032 0293     		str	r3, [sp, #8]
 260:Core/Src/main.c ****   {
 516              		.loc 1 260 3 is_stmt 1 view .LVU125
 260:Core/Src/main.c ****   {
 517              		.loc 1 260 7 is_stmt 0 view .LVU126
 518 0034 02A9     		add	r1, sp, #8
 519 0036 0948     		ldr	r0, .L31
 520 0038 FFF7FEFF 		bl	HAL_TIM_ConfigClockSource
 521              	.LVL28:
 260:Core/Src/main.c ****   {
 522              		.loc 1 260 6 discriminator 1 view .LVU127
 523 003c 50B9     		cbnz	r0, .L29
 264:Core/Src/main.c ****   sMasterConfig.MasterSlaveMode = TIM_MASTERSLAVEMODE_DISABLE;
 524              		.loc 1 264 3 is_stmt 1 view .LVU128
 264:Core/Src/main.c ****   sMasterConfig.MasterSlaveMode = TIM_MASTERSLAVEMODE_DISABLE;
 525              		.loc 1 264 37 is_stmt 0 view .LVU129
ARM GAS  /tmp/ccuqHRfY.s 			page 20


 526 003e 0090     		str	r0, [sp]
 265:Core/Src/main.c ****   if (HAL_TIMEx_MasterConfigSynchronization(&htim1, &sMasterConfig) != HAL_OK)
 527              		.loc 1 265 3 is_stmt 1 view .LVU130
 265:Core/Src/main.c ****   if (HAL_TIMEx_MasterConfigSynchronization(&htim1, &sMasterConfig) != HAL_OK)
 528              		.loc 1 265 33 is_stmt 0 view .LVU131
 529 0040 0190     		str	r0, [sp, #4]
 266:Core/Src/main.c ****   {
 530              		.loc 1 266 3 is_stmt 1 view .LVU132
 266:Core/Src/main.c ****   {
 531              		.loc 1 266 7 is_stmt 0 view .LVU133
 532 0042 6946     		mov	r1, sp
 533 0044 0548     		ldr	r0, .L31
 534 0046 FFF7FEFF 		bl	HAL_TIMEx_MasterConfigSynchronization
 535              	.LVL29:
 266:Core/Src/main.c ****   {
 536              		.loc 1 266 6 discriminator 1 view .LVU134
 537 004a 28B9     		cbnz	r0, .L30
 274:Core/Src/main.c **** 
 538              		.loc 1 274 1 view .LVU135
 539 004c 07B0     		add	sp, sp, #28
 540              	.LCFI8:
 541              		.cfi_remember_state
 542              		.cfi_def_cfa_offset 4
 543              		@ sp needed
 544 004e 00BD     		pop	{pc}
 545              	.L28:
 546              	.LCFI9:
 547              		.cfi_restore_state
 257:Core/Src/main.c ****   }
 548              		.loc 1 257 5 is_stmt 1 view .LVU136
 549 0050 FFF7FEFF 		bl	Error_Handler
 550              	.LVL30:
 551              	.L29:
 262:Core/Src/main.c ****   }
 552              		.loc 1 262 5 view .LVU137
 553 0054 FFF7FEFF 		bl	Error_Handler
 554              	.LVL31:
 555              	.L30:
 268:Core/Src/main.c ****   }
 556              		.loc 1 268 5 view .LVU138
 557 0058 FFF7FEFF 		bl	Error_Handler
 558              	.LVL32:
 559              	.L32:
 560              		.align	2
 561              	.L31:
 562 005c 00000000 		.word	htim1
 563 0060 002C0140 		.word	1073818624
 564              		.cfi_endproc
 565              	.LFE71:
 567              		.section	.text.SystemClock_Config,"ax",%progbits
 568              		.align	1
 569              		.global	SystemClock_Config
 570              		.syntax unified
 571              		.thumb
 572              		.thumb_func
 574              	SystemClock_Config:
 575              	.LFB70:
ARM GAS  /tmp/ccuqHRfY.s 			page 21


 189:Core/Src/main.c ****   RCC_OscInitTypeDef RCC_OscInitStruct = {0};
 576              		.loc 1 189 1 view -0
 577              		.cfi_startproc
 578              		@ args = 0, pretend = 0, frame = 80
 579              		@ frame_needed = 0, uses_anonymous_args = 0
 580 0000 10B5     		push	{r4, lr}
 581              	.LCFI10:
 582              		.cfi_def_cfa_offset 8
 583              		.cfi_offset 4, -8
 584              		.cfi_offset 14, -4
 585 0002 94B0     		sub	sp, sp, #80
 586              	.LCFI11:
 587              		.cfi_def_cfa_offset 88
 190:Core/Src/main.c ****   RCC_ClkInitTypeDef RCC_ClkInitStruct = {0};
 588              		.loc 1 190 3 view .LVU140
 190:Core/Src/main.c ****   RCC_ClkInitTypeDef RCC_ClkInitStruct = {0};
 589              		.loc 1 190 22 is_stmt 0 view .LVU141
 590 0004 0AAC     		add	r4, sp, #40
 591 0006 2822     		movs	r2, #40
 592 0008 0021     		movs	r1, #0
 593 000a 2046     		mov	r0, r4
 594 000c FFF7FEFF 		bl	memset
 595              	.LVL33:
 191:Core/Src/main.c ****   RCC_PeriphCLKInitTypeDef PeriphClkInit = {0};
 596              		.loc 1 191 3 is_stmt 1 view .LVU142
 191:Core/Src/main.c ****   RCC_PeriphCLKInitTypeDef PeriphClkInit = {0};
 597              		.loc 1 191 22 is_stmt 0 view .LVU143
 598 0010 0023     		movs	r3, #0
 599 0012 0593     		str	r3, [sp, #20]
 600 0014 0693     		str	r3, [sp, #24]
 601 0016 0793     		str	r3, [sp, #28]
 602 0018 0893     		str	r3, [sp, #32]
 603 001a 0993     		str	r3, [sp, #36]
 192:Core/Src/main.c **** 
 604              		.loc 1 192 3 is_stmt 1 view .LVU144
 192:Core/Src/main.c **** 
 605              		.loc 1 192 28 is_stmt 0 view .LVU145
 606 001c 0193     		str	r3, [sp, #4]
 607 001e 0293     		str	r3, [sp, #8]
 608 0020 0393     		str	r3, [sp, #12]
 609 0022 0493     		str	r3, [sp, #16]
 197:Core/Src/main.c ****   RCC_OscInitStruct.HSEState = RCC_HSE_ON;
 610              		.loc 1 197 3 is_stmt 1 view .LVU146
 197:Core/Src/main.c ****   RCC_OscInitStruct.HSEState = RCC_HSE_ON;
 611              		.loc 1 197 36 is_stmt 0 view .LVU147
 612 0024 0122     		movs	r2, #1
 613 0026 0A92     		str	r2, [sp, #40]
 198:Core/Src/main.c ****   RCC_OscInitStruct.HSEPredivValue = RCC_HSE_PREDIV_DIV1;
 614              		.loc 1 198 3 is_stmt 1 view .LVU148
 198:Core/Src/main.c ****   RCC_OscInitStruct.HSEPredivValue = RCC_HSE_PREDIV_DIV1;
 615              		.loc 1 198 30 is_stmt 0 view .LVU149
 616 0028 4FF48033 		mov	r3, #65536
 617 002c 0B93     		str	r3, [sp, #44]
 199:Core/Src/main.c ****   RCC_OscInitStruct.HSIState = RCC_HSI_ON;
 618              		.loc 1 199 3 is_stmt 1 view .LVU150
 200:Core/Src/main.c ****   RCC_OscInitStruct.PLL.PLLState = RCC_PLL_ON;
 619              		.loc 1 200 3 view .LVU151
ARM GAS  /tmp/ccuqHRfY.s 			page 22


 200:Core/Src/main.c ****   RCC_OscInitStruct.PLL.PLLState = RCC_PLL_ON;
 620              		.loc 1 200 30 is_stmt 0 view .LVU152
 621 002e 0E92     		str	r2, [sp, #56]
 201:Core/Src/main.c ****   RCC_OscInitStruct.PLL.PLLSource = RCC_PLLSOURCE_HSE;
 622              		.loc 1 201 3 is_stmt 1 view .LVU153
 201:Core/Src/main.c ****   RCC_OscInitStruct.PLL.PLLSource = RCC_PLLSOURCE_HSE;
 623              		.loc 1 201 34 is_stmt 0 view .LVU154
 624 0030 0222     		movs	r2, #2
 625 0032 1192     		str	r2, [sp, #68]
 202:Core/Src/main.c ****   RCC_OscInitStruct.PLL.PLLMUL = RCC_PLL_MUL6;
 626              		.loc 1 202 3 is_stmt 1 view .LVU155
 202:Core/Src/main.c ****   RCC_OscInitStruct.PLL.PLLMUL = RCC_PLL_MUL6;
 627              		.loc 1 202 35 is_stmt 0 view .LVU156
 628 0034 1293     		str	r3, [sp, #72]
 203:Core/Src/main.c ****   if (HAL_RCC_OscConfig(&RCC_OscInitStruct) != HAL_OK)
 629              		.loc 1 203 3 is_stmt 1 view .LVU157
 203:Core/Src/main.c ****   if (HAL_RCC_OscConfig(&RCC_OscInitStruct) != HAL_OK)
 630              		.loc 1 203 32 is_stmt 0 view .LVU158
 631 0036 4FF48013 		mov	r3, #1048576
 632 003a 1393     		str	r3, [sp, #76]
 204:Core/Src/main.c ****   {
 633              		.loc 1 204 3 is_stmt 1 view .LVU159
 204:Core/Src/main.c ****   {
 634              		.loc 1 204 7 is_stmt 0 view .LVU160
 635 003c 2046     		mov	r0, r4
 636 003e FFF7FEFF 		bl	HAL_RCC_OscConfig
 637              	.LVL34:
 204:Core/Src/main.c ****   {
 638              		.loc 1 204 6 discriminator 1 view .LVU161
 639 0042 D0B9     		cbnz	r0, .L38
 211:Core/Src/main.c ****                               |RCC_CLOCKTYPE_PCLK1|RCC_CLOCKTYPE_PCLK2;
 640              		.loc 1 211 3 is_stmt 1 view .LVU162
 211:Core/Src/main.c ****                               |RCC_CLOCKTYPE_PCLK1|RCC_CLOCKTYPE_PCLK2;
 641              		.loc 1 211 31 is_stmt 0 view .LVU163
 642 0044 0F23     		movs	r3, #15
 643 0046 0593     		str	r3, [sp, #20]
 213:Core/Src/main.c ****   RCC_ClkInitStruct.AHBCLKDivider = RCC_SYSCLK_DIV1;
 644              		.loc 1 213 3 is_stmt 1 view .LVU164
 213:Core/Src/main.c ****   RCC_ClkInitStruct.AHBCLKDivider = RCC_SYSCLK_DIV1;
 645              		.loc 1 213 34 is_stmt 0 view .LVU165
 646 0048 0223     		movs	r3, #2
 647 004a 0693     		str	r3, [sp, #24]
 214:Core/Src/main.c ****   RCC_ClkInitStruct.APB1CLKDivider = RCC_HCLK_DIV4;
 648              		.loc 1 214 3 is_stmt 1 view .LVU166
 214:Core/Src/main.c ****   RCC_ClkInitStruct.APB1CLKDivider = RCC_HCLK_DIV4;
 649              		.loc 1 214 35 is_stmt 0 view .LVU167
 650 004c 0790     		str	r0, [sp, #28]
 215:Core/Src/main.c ****   RCC_ClkInitStruct.APB2CLKDivider = RCC_HCLK_DIV8;
 651              		.loc 1 215 3 is_stmt 1 view .LVU168
 215:Core/Src/main.c ****   RCC_ClkInitStruct.APB2CLKDivider = RCC_HCLK_DIV8;
 652              		.loc 1 215 36 is_stmt 0 view .LVU169
 653 004e 4FF4A063 		mov	r3, #1280
 654 0052 0893     		str	r3, [sp, #32]
 216:Core/Src/main.c **** 
 655              		.loc 1 216 3 is_stmt 1 view .LVU170
 216:Core/Src/main.c **** 
 656              		.loc 1 216 36 is_stmt 0 view .LVU171
ARM GAS  /tmp/ccuqHRfY.s 			page 23


 657 0054 4FF4C063 		mov	r3, #1536
 658 0058 0993     		str	r3, [sp, #36]
 218:Core/Src/main.c ****   {
 659              		.loc 1 218 3 is_stmt 1 view .LVU172
 218:Core/Src/main.c ****   {
 660              		.loc 1 218 7 is_stmt 0 view .LVU173
 661 005a 0121     		movs	r1, #1
 662 005c 05A8     		add	r0, sp, #20
 663 005e FFF7FEFF 		bl	HAL_RCC_ClockConfig
 664              	.LVL35:
 218:Core/Src/main.c ****   {
 665              		.loc 1 218 6 discriminator 1 view .LVU174
 666 0062 60B9     		cbnz	r0, .L39
 222:Core/Src/main.c ****   PeriphClkInit.UsbClockSelection = RCC_USBCLKSOURCE_PLL;
 667              		.loc 1 222 3 is_stmt 1 view .LVU175
 222:Core/Src/main.c ****   PeriphClkInit.UsbClockSelection = RCC_USBCLKSOURCE_PLL;
 668              		.loc 1 222 38 is_stmt 0 view .LVU176
 669 0064 1023     		movs	r3, #16
 670 0066 0193     		str	r3, [sp, #4]
 223:Core/Src/main.c ****   if (HAL_RCCEx_PeriphCLKConfig(&PeriphClkInit) != HAL_OK)
 671              		.loc 1 223 3 is_stmt 1 view .LVU177
 223:Core/Src/main.c ****   if (HAL_RCCEx_PeriphCLKConfig(&PeriphClkInit) != HAL_OK)
 672              		.loc 1 223 35 is_stmt 0 view .LVU178
 673 0068 4FF48003 		mov	r3, #4194304
 674 006c 0493     		str	r3, [sp, #16]
 224:Core/Src/main.c ****   {
 675              		.loc 1 224 3 is_stmt 1 view .LVU179
 224:Core/Src/main.c ****   {
 676              		.loc 1 224 7 is_stmt 0 view .LVU180
 677 006e 01A8     		add	r0, sp, #4
 678 0070 FFF7FEFF 		bl	HAL_RCCEx_PeriphCLKConfig
 679              	.LVL36:
 224:Core/Src/main.c ****   {
 680              		.loc 1 224 6 discriminator 1 view .LVU181
 681 0074 28B9     		cbnz	r0, .L40
 228:Core/Src/main.c **** 
 682              		.loc 1 228 1 view .LVU182
 683 0076 14B0     		add	sp, sp, #80
 684              	.LCFI12:
 685              		.cfi_remember_state
 686              		.cfi_def_cfa_offset 8
 687              		@ sp needed
 688 0078 10BD     		pop	{r4, pc}
 689              	.L38:
 690              	.LCFI13:
 691              		.cfi_restore_state
 206:Core/Src/main.c ****   }
 692              		.loc 1 206 5 is_stmt 1 view .LVU183
 693 007a FFF7FEFF 		bl	Error_Handler
 694              	.LVL37:
 695              	.L39:
 220:Core/Src/main.c ****   }
 696              		.loc 1 220 5 view .LVU184
 697 007e FFF7FEFF 		bl	Error_Handler
 698              	.LVL38:
 699              	.L40:
 226:Core/Src/main.c ****   }
ARM GAS  /tmp/ccuqHRfY.s 			page 24


 700              		.loc 1 226 5 view .LVU185
 701 0082 FFF7FEFF 		bl	Error_Handler
 702              	.LVL39:
 703              		.cfi_endproc
 704              	.LFE70:
 706              		.section	.rodata.main.str1.4,"aMS",%progbits,1
 707              		.align	2
 708              	.LC0:
 709 0000 5B25735D 		.ascii	"[%s]:%d\015\012\000"
 709      3A25640D 
 709      0A00
 710              		.section	.text.main,"ax",%progbits
 711              		.align	1
 712              		.global	main
 713              		.syntax unified
 714              		.thumb
 715              		.thumb_func
 717              	main:
 718              	.LFB69:
 133:Core/Src/main.c **** 
 719              		.loc 1 133 1 view -0
 720              		.cfi_startproc
 721              		@ Volatile: function does not return.
 722              		@ args = 0, pretend = 0, frame = 0
 723              		@ frame_needed = 0, uses_anonymous_args = 0
 724 0000 00B5     		push	{lr}
 725              	.LCFI14:
 726              		.cfi_def_cfa_offset 4
 727              		.cfi_offset 14, -4
 728 0002 83B0     		sub	sp, sp, #12
 729              	.LCFI15:
 730              		.cfi_def_cfa_offset 16
 141:Core/Src/main.c **** 
 731              		.loc 1 141 3 view .LVU187
 732 0004 FFF7FEFF 		bl	HAL_Init
 733              	.LVL40:
 148:Core/Src/main.c **** 
 734              		.loc 1 148 3 view .LVU188
 735 0008 FFF7FEFF 		bl	SystemClock_Config
 736              	.LVL41:
 155:Core/Src/main.c ****   MX_USB_DEVICE_Init();
 737              		.loc 1 155 3 view .LVU189
 738 000c FFF7FEFF 		bl	MX_GPIO_Init
 739              	.LVL42:
 156:Core/Src/main.c ****   MX_TIM1_Init();
 740              		.loc 1 156 3 view .LVU190
 741 0010 FFF7FEFF 		bl	MX_USB_DEVICE_Init
 742              	.LVL43:
 157:Core/Src/main.c ****   /* USER CODE BEGIN 2 */
 743              		.loc 1 157 3 view .LVU191
 744 0014 FFF7FEFF 		bl	MX_TIM1_Init
 745              	.LVL44:
 159:Core/Src/main.c ****   
 746              		.loc 1 159 3 view .LVU192
 747 0018 1148     		ldr	r0, .L46
 748 001a FFF7FEFF 		bl	HAL_TIM_Base_Start
 749              	.LVL45:
ARM GAS  /tmp/ccuqHRfY.s 			page 25


 750              	.L42:
 165:Core/Src/main.c ****   {
 751              		.loc 1 165 3 view .LVU193
 170:Core/Src/main.c ****       usbTxBufLen = snprintf((char *)usbTxBuff, USB_BUFLEN, "[%s]:%d\r\n",usbRxBuff,usbRXBufLen);
 752              		.loc 1 170 5 view .LVU194
 170:Core/Src/main.c ****       usbTxBufLen = snprintf((char *)usbTxBuff, USB_BUFLEN, "[%s]:%d\r\n",usbRxBuff,usbRXBufLen);
 753              		.loc 1 170 9 is_stmt 0 view .LVU195
 754 001e 114B     		ldr	r3, .L46+4
 755 0020 1B78     		ldrb	r3, [r3]	@ zero_extendqisi2
 170:Core/Src/main.c ****       usbTxBufLen = snprintf((char *)usbTxBuff, USB_BUFLEN, "[%s]:%d\r\n",usbRxBuff,usbRXBufLen);
 756              		.loc 1 170 8 view .LVU196
 757 0022 002B     		cmp	r3, #0
 758 0024 FBD0     		beq	.L42
 170:Core/Src/main.c ****       usbTxBufLen = snprintf((char *)usbTxBuff, USB_BUFLEN, "[%s]:%d\r\n",usbRxBuff,usbRXBufLen);
 759              		.loc 1 170 19 discriminator 1 view .LVU197
 760 0026 104B     		ldr	r3, .L46+8
 761 0028 1B88     		ldrh	r3, [r3]
 762 002a 002B     		cmp	r3, #0
 763 002c F7D0     		beq	.L42
 171:Core/Src/main.c ****       // the send buffer will copy the RX data, under the format "bytes received: length : content"
 764              		.loc 1 171 7 is_stmt 1 view .LVU198
 171:Core/Src/main.c ****       // the send buffer will copy the RX data, under the format "bytes received: length : content"
 765              		.loc 1 171 21 is_stmt 0 view .LVU199
 766 002e 0F4C     		ldr	r4, .L46+12
 767 0030 0093     		str	r3, [sp]
 768 0032 0F4B     		ldr	r3, .L46+16
 769 0034 0F4A     		ldr	r2, .L46+20
 770 0036 8021     		movs	r1, #128
 771 0038 2046     		mov	r0, r4
 772 003a FFF7FEFF 		bl	snprintf
 773              	.LVL46:
 171:Core/Src/main.c ****       // the send buffer will copy the RX data, under the format "bytes received: length : content"
 774              		.loc 1 171 19 discriminator 1 view .LVU200
 775 003e 0E4B     		ldr	r3, .L46+24
 776 0040 1880     		strh	r0, [r3]	@ movhi
 173:Core/Src/main.c **** 
 777              		.loc 1 173 7 is_stmt 1 view .LVU201
 778 0042 8021     		movs	r1, #128
 779 0044 2046     		mov	r0, r4
 780 0046 FFF7FEFF 		bl	CDC_Transmit_FS
 781              	.LVL47:
 175:Core/Src/main.c ****       usbRXFlag = 0;
 782              		.loc 1 175 7 view .LVU202
 783 004a 8022     		movs	r2, #128
 784 004c 0021     		movs	r1, #0
 785 004e 2046     		mov	r0, r4
 786 0050 FFF7FEFF 		bl	memset
 787              	.LVL48:
 176:Core/Src/main.c ****       usbRXBufLen = 0;
 788              		.loc 1 176 7 view .LVU203
 176:Core/Src/main.c ****       usbRXBufLen = 0;
 789              		.loc 1 176 17 is_stmt 0 view .LVU204
 790 0054 0023     		movs	r3, #0
 791 0056 034A     		ldr	r2, .L46+4
 792 0058 1370     		strb	r3, [r2]
 177:Core/Src/main.c **** 
 793              		.loc 1 177 7 is_stmt 1 view .LVU205
ARM GAS  /tmp/ccuqHRfY.s 			page 26


 177:Core/Src/main.c **** 
 794              		.loc 1 177 19 is_stmt 0 view .LVU206
 795 005a 034A     		ldr	r2, .L46+8
 796 005c 1380     		strh	r3, [r2]	@ movhi
 797 005e DEE7     		b	.L42
 798              	.L47:
 799              		.align	2
 800              	.L46:
 801 0060 00000000 		.word	htim1
 802 0064 00000000 		.word	usbRXFlag
 803 0068 00000000 		.word	usbRXBufLen
 804 006c 00000000 		.word	usbTxBuff
 805 0070 00000000 		.word	usbRxBuff
 806 0074 00000000 		.word	.LC0
 807 0078 00000000 		.word	usbTxBufLen
 808              		.cfi_endproc
 809              	.LFE69:
 811              		.global	LCDList
 812              		.section	.data.LCDList,"aw"
 813              		.align	2
 816              	LCDList:
 817 0000 00000000 		.word	LCDSegment0
 818 0004 07       		.byte	7
 819 0005 000000   		.space	3
 820 0008 00000000 		.word	LCDSegment1
 821 000c 02       		.byte	2
 822 000d 000000   		.space	3
 823 0010 00000000 		.word	LCDSegment2
 824 0014 05       		.byte	5
 825 0015 000000   		.space	3
 826 0018 00000000 		.word	LCDSegment3
 827 001c 05       		.byte	5
 828 001d 000000   		.space	3
 829 0020 00000000 		.word	LCDSegment4
 830 0024 04       		.byte	4
 831 0025 000000   		.space	3
 832 0028 00000000 		.word	LCDSegment5
 833 002c 05       		.byte	5
 834 002d 000000   		.space	3
 835 0030 00000000 		.word	LCDSegment6
 836 0034 06       		.byte	6
 837 0035 000000   		.space	3
 838 0038 00000000 		.word	LCDSegment7
 839 003c 03       		.byte	3
 840 003d 000000   		.space	3
 841 0040 00000000 		.word	LCDSegment8
 842 0044 07       		.byte	7
 843 0045 000000   		.space	3
 844 0048 00000000 		.word	LCDSegment9
 845 004c 06       		.byte	6
 846 004d 000000   		.space	3
 847              		.global	LCDSegment0
 848              		.section	.data.LCDSegment0,"aw"
 849              		.align	2
 852              	LCDSegment0:
 853 0000 000C0140 		.word	1073810432
 854 0004 0200     		.short	2
ARM GAS  /tmp/ccuqHRfY.s 			page 27


 855 0006 0000     		.space	2
 856 0008 000C0140 		.word	1073810432
 857 000c 0100     		.short	1
 858 000e 0000     		.space	2
 859 0010 00080140 		.word	1073809408
 860 0014 8000     		.short	128
 861 0016 0000     		.space	2
 862 0018 00080140 		.word	1073809408
 863 001c 4000     		.short	64
 864 001e 0000     		.space	2
 865 0020 00080140 		.word	1073809408
 866 0024 2000     		.short	32
 867 0026 0000     		.space	2
 868 0028 00080140 		.word	1073809408
 869 002c 1000     		.short	16
 870 002e 0000     		.space	2
 871              		.global	LCDSegment9
 872              		.section	.data.LCDSegment9,"aw"
 873              		.align	2
 876              	LCDSegment9:
 877 0000 000C0140 		.word	1073810432
 878 0004 0200     		.short	2
 879 0006 0000     		.space	2
 880 0008 000C0140 		.word	1073810432
 881 000c 0100     		.short	1
 882 000e 0000     		.space	2
 883 0010 00080140 		.word	1073809408
 884 0014 8000     		.short	128
 885 0016 0000     		.space	2
 886 0018 00080140 		.word	1073809408
 887 001c 4000     		.short	64
 888 001e 0000     		.space	2
 889 0020 00080140 		.word	1073809408
 890 0024 1000     		.short	16
 891 0026 0000     		.space	2
 892 0028 000C0140 		.word	1073810432
 893 002c 0004     		.short	1024
 894 002e 0000     		.space	2
 895              		.global	LCDSegment8
 896              		.section	.data.LCDSegment8,"aw"
 897              		.align	2
 900              	LCDSegment8:
 901 0000 000C0140 		.word	1073810432
 902 0004 0200     		.short	2
 903 0006 0000     		.space	2
 904 0008 000C0140 		.word	1073810432
 905 000c 0100     		.short	1
 906 000e 0000     		.space	2
 907 0010 00080140 		.word	1073809408
 908 0014 8000     		.short	128
 909 0016 0000     		.space	2
 910 0018 00080140 		.word	1073809408
 911 001c 4000     		.short	64
 912 001e 0000     		.space	2
 913 0020 00080140 		.word	1073809408
 914 0024 2000     		.short	32
 915 0026 0000     		.space	2
ARM GAS  /tmp/ccuqHRfY.s 			page 28


 916 0028 00080140 		.word	1073809408
 917 002c 1000     		.short	16
 918 002e 0000     		.space	2
 919 0030 000C0140 		.word	1073810432
 920 0034 0004     		.short	1024
 921 0036 0000     		.space	2
 922              		.global	LCDSegment7
 923              		.section	.data.LCDSegment7,"aw"
 924              		.align	2
 927              	LCDSegment7:
 928 0000 000C0140 		.word	1073810432
 929 0004 0200     		.short	2
 930 0006 0000     		.space	2
 931 0008 000C0140 		.word	1073810432
 932 000c 0100     		.short	1
 933 000e 0000     		.space	2
 934 0010 00080140 		.word	1073809408
 935 0014 8000     		.short	128
 936 0016 0000     		.space	2
 937              		.global	LCDSegment6
 938              		.section	.data.LCDSegment6,"aw"
 939              		.align	2
 942              	LCDSegment6:
 943 0000 000C0140 		.word	1073810432
 944 0004 0200     		.short	2
 945 0006 0000     		.space	2
 946 0008 00080140 		.word	1073809408
 947 000c 8000     		.short	128
 948 000e 0000     		.space	2
 949 0010 00080140 		.word	1073809408
 950 0014 4000     		.short	64
 951 0016 0000     		.space	2
 952 0018 00080140 		.word	1073809408
 953 001c 2000     		.short	32
 954 001e 0000     		.space	2
 955 0020 00080140 		.word	1073809408
 956 0024 1000     		.short	16
 957 0026 0000     		.space	2
 958 0028 000C0140 		.word	1073810432
 959 002c 0004     		.short	1024
 960 002e 0000     		.space	2
 961              		.global	LCDSegment5
 962              		.section	.data.LCDSegment5,"aw"
 963              		.align	2
 966              	LCDSegment5:
 967 0000 000C0140 		.word	1073810432
 968 0004 0200     		.short	2
 969 0006 0000     		.space	2
 970 0008 00080140 		.word	1073809408
 971 000c 8000     		.short	128
 972 000e 0000     		.space	2
 973 0010 00080140 		.word	1073809408
 974 0014 4000     		.short	64
 975 0016 0000     		.space	2
 976 0018 00080140 		.word	1073809408
 977 001c 1000     		.short	16
 978 001e 0000     		.space	2
ARM GAS  /tmp/ccuqHRfY.s 			page 29


 979 0020 000C0140 		.word	1073810432
 980 0024 0004     		.short	1024
 981 0026 0000     		.space	2
 982              		.global	LCDSegment4
 983              		.section	.data.LCDSegment4,"aw"
 984              		.align	2
 987              	LCDSegment4:
 988 0000 000C0140 		.word	1073810432
 989 0004 0100     		.short	1
 990 0006 0000     		.space	2
 991 0008 00080140 		.word	1073809408
 992 000c 8000     		.short	128
 993 000e 0000     		.space	2
 994 0010 00080140 		.word	1073809408
 995 0014 1000     		.short	16
 996 0016 0000     		.space	2
 997 0018 000C0140 		.word	1073810432
 998 001c 0004     		.short	1024
 999 001e 0000     		.space	2
 1000              		.global	LCDSegment3
 1001              		.section	.data.LCDSegment3,"aw"
 1002              		.align	2
 1005              	LCDSegment3:
 1006 0000 000C0140 		.word	1073810432
 1007 0004 0200     		.short	2
 1008 0006 0000     		.space	2
 1009 0008 000C0140 		.word	1073810432
 1010 000c 0100     		.short	1
 1011 000e 0000     		.space	2
 1012 0010 00080140 		.word	1073809408
 1013 0014 8000     		.short	128
 1014 0016 0000     		.space	2
 1015 0018 00080140 		.word	1073809408
 1016 001c 4000     		.short	64
 1017 001e 0000     		.space	2
 1018 0020 000C0140 		.word	1073810432
 1019 0024 0004     		.short	1024
 1020 0026 0000     		.space	2
 1021              		.global	LCDSegment2
 1022              		.section	.data.LCDSegment2,"aw"
 1023              		.align	2
 1026              	LCDSegment2:
 1027 0000 000C0140 		.word	1073810432
 1028 0004 0200     		.short	2
 1029 0006 0000     		.space	2
 1030 0008 000C0140 		.word	1073810432
 1031 000c 0100     		.short	1
 1032 000e 0000     		.space	2
 1033 0010 00080140 		.word	1073809408
 1034 0014 4000     		.short	64
 1035 0016 0000     		.space	2
 1036 0018 00080140 		.word	1073809408
 1037 001c 2000     		.short	32
 1038 001e 0000     		.space	2
 1039 0020 000C0140 		.word	1073810432
 1040 0024 0004     		.short	1024
 1041 0026 0000     		.space	2
ARM GAS  /tmp/ccuqHRfY.s 			page 30


 1042              		.global	LCDSegment1
 1043              		.section	.data.LCDSegment1,"aw"
 1044              		.align	2
 1047              	LCDSegment1:
 1048 0000 000C0140 		.word	1073810432
 1049 0004 0100     		.short	1
 1050 0006 0000     		.space	2
 1051 0008 00080140 		.word	1073809408
 1052 000c 8000     		.short	128
 1053 000e 0000     		.space	2
 1054              		.global	usbRXFlag
 1055              		.section	.bss.usbRXFlag,"aw",%nobits
 1058              	usbRXFlag:
 1059 0000 00       		.space	1
 1060              		.global	usbRXBufLen
 1061              		.section	.bss.usbRXBufLen,"aw",%nobits
 1062              		.align	1
 1065              	usbRXBufLen:
 1066 0000 0000     		.space	2
 1067              		.global	usbRxBuff
 1068              		.section	.bss.usbRxBuff,"aw",%nobits
 1069              		.align	2
 1072              	usbRxBuff:
 1073 0000 00000000 		.space	128
 1073      00000000 
 1073      00000000 
 1073      00000000 
 1073      00000000 
 1074              		.global	usbTxBufLen
 1075              		.section	.bss.usbTxBufLen,"aw",%nobits
 1076              		.align	1
 1079              	usbTxBufLen:
 1080 0000 0000     		.space	2
 1081              		.global	usbTxBuff
 1082              		.section	.bss.usbTxBuff,"aw",%nobits
 1083              		.align	2
 1086              	usbTxBuff:
 1087 0000 00000000 		.space	128
 1087      00000000 
 1087      00000000 
 1087      00000000 
 1087      00000000 
 1088              		.global	htim1
 1089              		.section	.bss.htim1,"aw",%nobits
 1090              		.align	2
 1093              	htim1:
 1094 0000 00000000 		.space	72
 1094      00000000 
 1094      00000000 
 1094      00000000 
 1094      00000000 
 1095              		.text
 1096              	.Letext0:
 1097              		.file 3 "/opt/arm-gnu-toolchain-15.2.rel1-x86_64-arm-none-eabi/arm-none-eabi/include/machine/_defa
 1098              		.file 4 "/opt/arm-gnu-toolchain-15.2.rel1-x86_64-arm-none-eabi/arm-none-eabi/include/sys/_stdint.h
 1099              		.file 5 "Drivers/CMSIS/Device/ST/STM32F1xx/Include/stm32f103xb.h"
 1100              		.file 6 "Drivers/STM32F1xx_HAL_Driver/Inc/stm32f1xx_hal_def.h"
ARM GAS  /tmp/ccuqHRfY.s 			page 31


 1101              		.file 7 "Drivers/STM32F1xx_HAL_Driver/Inc/stm32f1xx_hal_rcc.h"
 1102              		.file 8 "Drivers/STM32F1xx_HAL_Driver/Inc/stm32f1xx_hal_rcc_ex.h"
 1103              		.file 9 "Drivers/STM32F1xx_HAL_Driver/Inc/stm32f1xx_hal_gpio.h"
 1104              		.file 10 "Drivers/STM32F1xx_HAL_Driver/Inc/stm32f1xx_hal_dma.h"
 1105              		.file 11 "Drivers/STM32F1xx_HAL_Driver/Inc/stm32f1xx_hal_tim.h"
 1106              		.file 12 "Drivers/STM32F1xx_HAL_Driver/Inc/stm32f1xx_hal_tim_ex.h"
 1107              		.file 13 "USB_DEVICE/App/usbd_cdc_if.h"
 1108              		.file 14 "/opt/arm-gnu-toolchain-15.2.rel1-x86_64-arm-none-eabi/arm-none-eabi/include/stdio.h"
 1109              		.file 15 "/opt/arm-gnu-toolchain-15.2.rel1-x86_64-arm-none-eabi/arm-none-eabi/include/string.h"
 1110              		.file 16 "<built-in>"
 1111              		.file 17 "USB_DEVICE/App/usb_device.h"
 1112              		.file 18 "Drivers/STM32F1xx_HAL_Driver/Inc/stm32f1xx_hal.h"
ARM GAS  /tmp/ccuqHRfY.s 			page 32

