ARM GAS  /tmp/ccoBYPID.s 			page 1


   1              		.cpu cortex-m3
   2              		.arch armv7-m
   3              		.fpu softvfp
   4              		.eabi_attribute 20, 1
   5              		.eabi_attribute 21, 1
   6              		.eabi_attribute 23, 3
   7              		.eabi_attribute 24, 1
   8              		.eabi_attribute 25, 1
   9              		.eabi_attribute 26, 1
  10              		.eabi_attribute 30, 1
  11              		.eabi_attribute 34, 1
  12              		.eabi_attribute 18, 4
  13              		.file	"usbd_conf.c"
  14              		.text
  15              	.Ltext0:
  16              		.cfi_sections	.debug_frame
  17              		.file 1 "USB_DEVICE/Target/usbd_conf.c"
  18              		.section	.text.USBD_Get_USB_Status,"ax",%progbits
  19              		.align	1
  20              		.syntax unified
  21              		.thumb
  22              		.thumb_func
  24              	USBD_Get_USB_Status:
  25              	.LVL0:
  26              	.LFB99:
   1:USB_DEVICE/Target/usbd_conf.c **** /* USER CODE BEGIN Header */
   2:USB_DEVICE/Target/usbd_conf.c **** /**
   3:USB_DEVICE/Target/usbd_conf.c ****   ******************************************************************************
   4:USB_DEVICE/Target/usbd_conf.c ****   * @file           : Target/usbd_conf.c
   5:USB_DEVICE/Target/usbd_conf.c ****   * @version        : v2.0_Cube
   6:USB_DEVICE/Target/usbd_conf.c ****   * @brief          : This file implements the board support package for the USB device library
   7:USB_DEVICE/Target/usbd_conf.c ****   ******************************************************************************
   8:USB_DEVICE/Target/usbd_conf.c ****   * @attention
   9:USB_DEVICE/Target/usbd_conf.c ****   *
  10:USB_DEVICE/Target/usbd_conf.c ****   * Copyright (c) 2026 STMicroelectronics.
  11:USB_DEVICE/Target/usbd_conf.c ****   * All rights reserved.
  12:USB_DEVICE/Target/usbd_conf.c ****   *
  13:USB_DEVICE/Target/usbd_conf.c ****   * This software is licensed under terms that can be found in the LICENSE file
  14:USB_DEVICE/Target/usbd_conf.c ****   * in the root directory of this software component.
  15:USB_DEVICE/Target/usbd_conf.c ****   * If no LICENSE file comes with this software, it is provided AS-IS.
  16:USB_DEVICE/Target/usbd_conf.c ****   *
  17:USB_DEVICE/Target/usbd_conf.c ****   ******************************************************************************
  18:USB_DEVICE/Target/usbd_conf.c ****   */
  19:USB_DEVICE/Target/usbd_conf.c **** /* USER CODE END Header */
  20:USB_DEVICE/Target/usbd_conf.c **** 
  21:USB_DEVICE/Target/usbd_conf.c **** /* Includes ------------------------------------------------------------------*/
  22:USB_DEVICE/Target/usbd_conf.c **** #include "stm32f1xx.h"
  23:USB_DEVICE/Target/usbd_conf.c **** #include "stm32f1xx_hal.h"
  24:USB_DEVICE/Target/usbd_conf.c **** #include "usbd_def.h"
  25:USB_DEVICE/Target/usbd_conf.c **** #include "usbd_core.h"
  26:USB_DEVICE/Target/usbd_conf.c **** #include "usbd_cdc.h"
  27:USB_DEVICE/Target/usbd_conf.c **** 
  28:USB_DEVICE/Target/usbd_conf.c **** /* USER CODE BEGIN Includes */
  29:USB_DEVICE/Target/usbd_conf.c **** 
  30:USB_DEVICE/Target/usbd_conf.c **** /* USER CODE END Includes */
  31:USB_DEVICE/Target/usbd_conf.c **** 
  32:USB_DEVICE/Target/usbd_conf.c **** /* Private typedef -----------------------------------------------------------*/
ARM GAS  /tmp/ccoBYPID.s 			page 2


  33:USB_DEVICE/Target/usbd_conf.c **** /* Private define ------------------------------------------------------------*/
  34:USB_DEVICE/Target/usbd_conf.c **** /* Private macro -------------------------------------------------------------*/
  35:USB_DEVICE/Target/usbd_conf.c **** 
  36:USB_DEVICE/Target/usbd_conf.c **** /* USER CODE BEGIN PV */
  37:USB_DEVICE/Target/usbd_conf.c **** /* Private variables ---------------------------------------------------------*/
  38:USB_DEVICE/Target/usbd_conf.c **** 
  39:USB_DEVICE/Target/usbd_conf.c **** /* USER CODE END PV */
  40:USB_DEVICE/Target/usbd_conf.c **** 
  41:USB_DEVICE/Target/usbd_conf.c **** PCD_HandleTypeDef hpcd_USB_FS;
  42:USB_DEVICE/Target/usbd_conf.c **** void Error_Handler(void);
  43:USB_DEVICE/Target/usbd_conf.c **** 
  44:USB_DEVICE/Target/usbd_conf.c **** /* USER CODE BEGIN 0 */
  45:USB_DEVICE/Target/usbd_conf.c **** 
  46:USB_DEVICE/Target/usbd_conf.c **** /* USER CODE END 0 */
  47:USB_DEVICE/Target/usbd_conf.c **** 
  48:USB_DEVICE/Target/usbd_conf.c **** /* USER CODE BEGIN PFP */
  49:USB_DEVICE/Target/usbd_conf.c **** /* Private function prototypes -----------------------------------------------*/
  50:USB_DEVICE/Target/usbd_conf.c **** 
  51:USB_DEVICE/Target/usbd_conf.c **** /* USER CODE END PFP */
  52:USB_DEVICE/Target/usbd_conf.c **** 
  53:USB_DEVICE/Target/usbd_conf.c **** /* Private functions ---------------------------------------------------------*/
  54:USB_DEVICE/Target/usbd_conf.c **** static USBD_StatusTypeDef USBD_Get_USB_Status(HAL_StatusTypeDef hal_status);
  55:USB_DEVICE/Target/usbd_conf.c **** /* USER CODE BEGIN 1 */
  56:USB_DEVICE/Target/usbd_conf.c **** 
  57:USB_DEVICE/Target/usbd_conf.c **** /* USER CODE END 1 */
  58:USB_DEVICE/Target/usbd_conf.c **** #if (USE_HAL_PCD_REGISTER_CALLBACKS == 1U)
  59:USB_DEVICE/Target/usbd_conf.c **** static void PCDEx_SetConnectionState(PCD_HandleTypeDef *hpcd, uint8_t state);
  60:USB_DEVICE/Target/usbd_conf.c **** #else
  61:USB_DEVICE/Target/usbd_conf.c **** void HAL_PCDEx_SetConnectionState(PCD_HandleTypeDef *hpcd, uint8_t state);
  62:USB_DEVICE/Target/usbd_conf.c **** #endif /* USE_HAL_PCD_REGISTER_CALLBACKS */
  63:USB_DEVICE/Target/usbd_conf.c **** 
  64:USB_DEVICE/Target/usbd_conf.c **** /*******************************************************************************
  65:USB_DEVICE/Target/usbd_conf.c ****                        LL Driver Callbacks (PCD -> USB Device Library)
  66:USB_DEVICE/Target/usbd_conf.c **** *******************************************************************************/
  67:USB_DEVICE/Target/usbd_conf.c **** /* MSP Init */
  68:USB_DEVICE/Target/usbd_conf.c **** 
  69:USB_DEVICE/Target/usbd_conf.c **** void HAL_PCD_MspInit(PCD_HandleTypeDef* pcdHandle)
  70:USB_DEVICE/Target/usbd_conf.c **** {
  71:USB_DEVICE/Target/usbd_conf.c ****   if(pcdHandle->Instance==USB)
  72:USB_DEVICE/Target/usbd_conf.c ****   {
  73:USB_DEVICE/Target/usbd_conf.c ****   /* USER CODE BEGIN USB_MspInit 0 */
  74:USB_DEVICE/Target/usbd_conf.c **** 
  75:USB_DEVICE/Target/usbd_conf.c ****   /* USER CODE END USB_MspInit 0 */
  76:USB_DEVICE/Target/usbd_conf.c ****     /* Peripheral clock enable */
  77:USB_DEVICE/Target/usbd_conf.c ****     __HAL_RCC_USB_CLK_ENABLE();
  78:USB_DEVICE/Target/usbd_conf.c **** 
  79:USB_DEVICE/Target/usbd_conf.c ****     /* Peripheral interrupt init */
  80:USB_DEVICE/Target/usbd_conf.c ****     HAL_NVIC_SetPriority(USB_HP_CAN1_TX_IRQn, 0, 0);
  81:USB_DEVICE/Target/usbd_conf.c ****     HAL_NVIC_EnableIRQ(USB_HP_CAN1_TX_IRQn);
  82:USB_DEVICE/Target/usbd_conf.c ****     HAL_NVIC_SetPriority(USB_LP_CAN1_RX0_IRQn, 0, 0);
  83:USB_DEVICE/Target/usbd_conf.c ****     HAL_NVIC_EnableIRQ(USB_LP_CAN1_RX0_IRQn);
  84:USB_DEVICE/Target/usbd_conf.c ****   /* USER CODE BEGIN USB_MspInit 1 */
  85:USB_DEVICE/Target/usbd_conf.c **** 
  86:USB_DEVICE/Target/usbd_conf.c ****   /* USER CODE END USB_MspInit 1 */
  87:USB_DEVICE/Target/usbd_conf.c ****   }
  88:USB_DEVICE/Target/usbd_conf.c **** }
  89:USB_DEVICE/Target/usbd_conf.c **** 
ARM GAS  /tmp/ccoBYPID.s 			page 3


  90:USB_DEVICE/Target/usbd_conf.c **** void HAL_PCD_MspDeInit(PCD_HandleTypeDef* pcdHandle)
  91:USB_DEVICE/Target/usbd_conf.c **** {
  92:USB_DEVICE/Target/usbd_conf.c ****   if(pcdHandle->Instance==USB)
  93:USB_DEVICE/Target/usbd_conf.c ****   {
  94:USB_DEVICE/Target/usbd_conf.c ****   /* USER CODE BEGIN USB_MspDeInit 0 */
  95:USB_DEVICE/Target/usbd_conf.c **** 
  96:USB_DEVICE/Target/usbd_conf.c ****   /* USER CODE END USB_MspDeInit 0 */
  97:USB_DEVICE/Target/usbd_conf.c ****     /* Peripheral clock disable */
  98:USB_DEVICE/Target/usbd_conf.c ****     __HAL_RCC_USB_CLK_DISABLE();
  99:USB_DEVICE/Target/usbd_conf.c **** 
 100:USB_DEVICE/Target/usbd_conf.c ****     /* Peripheral interrupt Deinit*/
 101:USB_DEVICE/Target/usbd_conf.c ****     HAL_NVIC_DisableIRQ(USB_HP_CAN1_TX_IRQn);
 102:USB_DEVICE/Target/usbd_conf.c **** 
 103:USB_DEVICE/Target/usbd_conf.c ****     HAL_NVIC_DisableIRQ(USB_LP_CAN1_RX0_IRQn);
 104:USB_DEVICE/Target/usbd_conf.c **** 
 105:USB_DEVICE/Target/usbd_conf.c ****   /* USER CODE BEGIN USB_MspDeInit 1 */
 106:USB_DEVICE/Target/usbd_conf.c **** 
 107:USB_DEVICE/Target/usbd_conf.c ****   /* USER CODE END USB_MspDeInit 1 */
 108:USB_DEVICE/Target/usbd_conf.c ****   }
 109:USB_DEVICE/Target/usbd_conf.c **** }
 110:USB_DEVICE/Target/usbd_conf.c **** 
 111:USB_DEVICE/Target/usbd_conf.c **** /**
 112:USB_DEVICE/Target/usbd_conf.c ****   * @brief  Setup stage callback
 113:USB_DEVICE/Target/usbd_conf.c ****   * @param  hpcd: PCD handle
 114:USB_DEVICE/Target/usbd_conf.c ****   * @retval None
 115:USB_DEVICE/Target/usbd_conf.c ****   */
 116:USB_DEVICE/Target/usbd_conf.c **** #if (USE_HAL_PCD_REGISTER_CALLBACKS == 1U)
 117:USB_DEVICE/Target/usbd_conf.c **** static void PCD_SetupStageCallback(PCD_HandleTypeDef *hpcd)
 118:USB_DEVICE/Target/usbd_conf.c **** #else
 119:USB_DEVICE/Target/usbd_conf.c **** void HAL_PCD_SetupStageCallback(PCD_HandleTypeDef *hpcd)
 120:USB_DEVICE/Target/usbd_conf.c **** #endif /* USE_HAL_PCD_REGISTER_CALLBACKS */
 121:USB_DEVICE/Target/usbd_conf.c **** {
 122:USB_DEVICE/Target/usbd_conf.c ****   USBD_LL_SetupStage((USBD_HandleTypeDef*)hpcd->pData, (uint8_t *)hpcd->Setup);
 123:USB_DEVICE/Target/usbd_conf.c **** }
 124:USB_DEVICE/Target/usbd_conf.c **** 
 125:USB_DEVICE/Target/usbd_conf.c **** /**
 126:USB_DEVICE/Target/usbd_conf.c ****   * @brief  Data Out stage callback.
 127:USB_DEVICE/Target/usbd_conf.c ****   * @param  hpcd: PCD handle
 128:USB_DEVICE/Target/usbd_conf.c ****   * @param  epnum: Endpoint number
 129:USB_DEVICE/Target/usbd_conf.c ****   * @retval None
 130:USB_DEVICE/Target/usbd_conf.c ****   */
 131:USB_DEVICE/Target/usbd_conf.c **** #if (USE_HAL_PCD_REGISTER_CALLBACKS == 1U)
 132:USB_DEVICE/Target/usbd_conf.c **** static void PCD_DataOutStageCallback(PCD_HandleTypeDef *hpcd, uint8_t epnum)
 133:USB_DEVICE/Target/usbd_conf.c **** #else
 134:USB_DEVICE/Target/usbd_conf.c **** void HAL_PCD_DataOutStageCallback(PCD_HandleTypeDef *hpcd, uint8_t epnum)
 135:USB_DEVICE/Target/usbd_conf.c **** #endif /* USE_HAL_PCD_REGISTER_CALLBACKS */
 136:USB_DEVICE/Target/usbd_conf.c **** {
 137:USB_DEVICE/Target/usbd_conf.c ****   USBD_LL_DataOutStage((USBD_HandleTypeDef*)hpcd->pData, epnum, hpcd->OUT_ep[epnum].xfer_buff);
 138:USB_DEVICE/Target/usbd_conf.c **** }
 139:USB_DEVICE/Target/usbd_conf.c **** 
 140:USB_DEVICE/Target/usbd_conf.c **** /**
 141:USB_DEVICE/Target/usbd_conf.c ****   * @brief  Data In stage callback.
 142:USB_DEVICE/Target/usbd_conf.c ****   * @param  hpcd: PCD handle
 143:USB_DEVICE/Target/usbd_conf.c ****   * @param  epnum: Endpoint number
 144:USB_DEVICE/Target/usbd_conf.c ****   * @retval None
 145:USB_DEVICE/Target/usbd_conf.c ****   */
 146:USB_DEVICE/Target/usbd_conf.c **** #if (USE_HAL_PCD_REGISTER_CALLBACKS == 1U)
ARM GAS  /tmp/ccoBYPID.s 			page 4


 147:USB_DEVICE/Target/usbd_conf.c **** static void PCD_DataInStageCallback(PCD_HandleTypeDef *hpcd, uint8_t epnum)
 148:USB_DEVICE/Target/usbd_conf.c **** #else
 149:USB_DEVICE/Target/usbd_conf.c **** void HAL_PCD_DataInStageCallback(PCD_HandleTypeDef *hpcd, uint8_t epnum)
 150:USB_DEVICE/Target/usbd_conf.c **** #endif /* USE_HAL_PCD_REGISTER_CALLBACKS */
 151:USB_DEVICE/Target/usbd_conf.c **** {
 152:USB_DEVICE/Target/usbd_conf.c ****   USBD_LL_DataInStage((USBD_HandleTypeDef*)hpcd->pData, epnum, hpcd->IN_ep[epnum].xfer_buff);
 153:USB_DEVICE/Target/usbd_conf.c **** }
 154:USB_DEVICE/Target/usbd_conf.c **** 
 155:USB_DEVICE/Target/usbd_conf.c **** /**
 156:USB_DEVICE/Target/usbd_conf.c ****   * @brief  SOF callback.
 157:USB_DEVICE/Target/usbd_conf.c ****   * @param  hpcd: PCD handle
 158:USB_DEVICE/Target/usbd_conf.c ****   * @retval None
 159:USB_DEVICE/Target/usbd_conf.c ****   */
 160:USB_DEVICE/Target/usbd_conf.c **** #if (USE_HAL_PCD_REGISTER_CALLBACKS == 1U)
 161:USB_DEVICE/Target/usbd_conf.c **** static void PCD_SOFCallback(PCD_HandleTypeDef *hpcd)
 162:USB_DEVICE/Target/usbd_conf.c **** #else
 163:USB_DEVICE/Target/usbd_conf.c **** void HAL_PCD_SOFCallback(PCD_HandleTypeDef *hpcd)
 164:USB_DEVICE/Target/usbd_conf.c **** #endif /* USE_HAL_PCD_REGISTER_CALLBACKS */
 165:USB_DEVICE/Target/usbd_conf.c **** {
 166:USB_DEVICE/Target/usbd_conf.c ****   USBD_LL_SOF((USBD_HandleTypeDef*)hpcd->pData);
 167:USB_DEVICE/Target/usbd_conf.c **** }
 168:USB_DEVICE/Target/usbd_conf.c **** 
 169:USB_DEVICE/Target/usbd_conf.c **** /**
 170:USB_DEVICE/Target/usbd_conf.c ****   * @brief  Reset callback.
 171:USB_DEVICE/Target/usbd_conf.c ****   * @param  hpcd: PCD handle
 172:USB_DEVICE/Target/usbd_conf.c ****   * @retval None
 173:USB_DEVICE/Target/usbd_conf.c ****   */
 174:USB_DEVICE/Target/usbd_conf.c **** #if (USE_HAL_PCD_REGISTER_CALLBACKS == 1U)
 175:USB_DEVICE/Target/usbd_conf.c **** static void PCD_ResetCallback(PCD_HandleTypeDef *hpcd)
 176:USB_DEVICE/Target/usbd_conf.c **** #else
 177:USB_DEVICE/Target/usbd_conf.c **** void HAL_PCD_ResetCallback(PCD_HandleTypeDef *hpcd)
 178:USB_DEVICE/Target/usbd_conf.c **** #endif /* USE_HAL_PCD_REGISTER_CALLBACKS */
 179:USB_DEVICE/Target/usbd_conf.c **** {
 180:USB_DEVICE/Target/usbd_conf.c ****   USBD_SpeedTypeDef speed = USBD_SPEED_FULL;
 181:USB_DEVICE/Target/usbd_conf.c **** 
 182:USB_DEVICE/Target/usbd_conf.c ****   if ( hpcd->Init.speed != PCD_SPEED_FULL)
 183:USB_DEVICE/Target/usbd_conf.c ****   {
 184:USB_DEVICE/Target/usbd_conf.c ****     Error_Handler();
 185:USB_DEVICE/Target/usbd_conf.c ****   }
 186:USB_DEVICE/Target/usbd_conf.c ****     /* Set Speed. */
 187:USB_DEVICE/Target/usbd_conf.c ****   USBD_LL_SetSpeed((USBD_HandleTypeDef*)hpcd->pData, speed);
 188:USB_DEVICE/Target/usbd_conf.c **** 
 189:USB_DEVICE/Target/usbd_conf.c ****   /* Reset Device. */
 190:USB_DEVICE/Target/usbd_conf.c ****   USBD_LL_Reset((USBD_HandleTypeDef*)hpcd->pData);
 191:USB_DEVICE/Target/usbd_conf.c **** }
 192:USB_DEVICE/Target/usbd_conf.c **** 
 193:USB_DEVICE/Target/usbd_conf.c **** /**
 194:USB_DEVICE/Target/usbd_conf.c ****   * @brief  Suspend callback.
 195:USB_DEVICE/Target/usbd_conf.c ****   * When Low power mode is enabled the debug cannot be used (IAR, Keil doesn't support it)
 196:USB_DEVICE/Target/usbd_conf.c ****   * @param  hpcd: PCD handle
 197:USB_DEVICE/Target/usbd_conf.c ****   * @retval None
 198:USB_DEVICE/Target/usbd_conf.c ****   */
 199:USB_DEVICE/Target/usbd_conf.c **** #if (USE_HAL_PCD_REGISTER_CALLBACKS == 1U)
 200:USB_DEVICE/Target/usbd_conf.c **** static void PCD_SuspendCallback(PCD_HandleTypeDef *hpcd)
 201:USB_DEVICE/Target/usbd_conf.c **** #else
 202:USB_DEVICE/Target/usbd_conf.c **** void HAL_PCD_SuspendCallback(PCD_HandleTypeDef *hpcd)
 203:USB_DEVICE/Target/usbd_conf.c **** #endif /* USE_HAL_PCD_REGISTER_CALLBACKS */
ARM GAS  /tmp/ccoBYPID.s 			page 5


 204:USB_DEVICE/Target/usbd_conf.c **** {
 205:USB_DEVICE/Target/usbd_conf.c ****   /* Inform USB library that core enters in suspend Mode. */
 206:USB_DEVICE/Target/usbd_conf.c ****   USBD_LL_Suspend((USBD_HandleTypeDef*)hpcd->pData);
 207:USB_DEVICE/Target/usbd_conf.c ****   /* Enter in STOP mode. */
 208:USB_DEVICE/Target/usbd_conf.c ****   /* USER CODE BEGIN 2 */
 209:USB_DEVICE/Target/usbd_conf.c ****   if (hpcd->Init.low_power_enable)
 210:USB_DEVICE/Target/usbd_conf.c ****   {
 211:USB_DEVICE/Target/usbd_conf.c ****     /* Set SLEEPDEEP bit and SleepOnExit of Cortex System Control Register. */
 212:USB_DEVICE/Target/usbd_conf.c ****     SCB->SCR |= (uint32_t)((uint32_t)(SCB_SCR_SLEEPDEEP_Msk | SCB_SCR_SLEEPONEXIT_Msk));
 213:USB_DEVICE/Target/usbd_conf.c ****   }
 214:USB_DEVICE/Target/usbd_conf.c ****   /* USER CODE END 2 */
 215:USB_DEVICE/Target/usbd_conf.c **** }
 216:USB_DEVICE/Target/usbd_conf.c **** 
 217:USB_DEVICE/Target/usbd_conf.c **** /**
 218:USB_DEVICE/Target/usbd_conf.c ****   * @brief  Resume callback.
 219:USB_DEVICE/Target/usbd_conf.c ****   * When Low power mode is enabled the debug cannot be used (IAR, Keil doesn't support it)
 220:USB_DEVICE/Target/usbd_conf.c ****   * @param  hpcd: PCD handle
 221:USB_DEVICE/Target/usbd_conf.c ****   * @retval None
 222:USB_DEVICE/Target/usbd_conf.c ****   */
 223:USB_DEVICE/Target/usbd_conf.c **** #if (USE_HAL_PCD_REGISTER_CALLBACKS == 1U)
 224:USB_DEVICE/Target/usbd_conf.c **** static void PCD_ResumeCallback(PCD_HandleTypeDef *hpcd)
 225:USB_DEVICE/Target/usbd_conf.c **** #else
 226:USB_DEVICE/Target/usbd_conf.c **** void HAL_PCD_ResumeCallback(PCD_HandleTypeDef *hpcd)
 227:USB_DEVICE/Target/usbd_conf.c **** #endif /* USE_HAL_PCD_REGISTER_CALLBACKS */
 228:USB_DEVICE/Target/usbd_conf.c **** {
 229:USB_DEVICE/Target/usbd_conf.c ****   /* USER CODE BEGIN 3 */
 230:USB_DEVICE/Target/usbd_conf.c **** 
 231:USB_DEVICE/Target/usbd_conf.c ****   /* USER CODE END 3 */
 232:USB_DEVICE/Target/usbd_conf.c ****   USBD_LL_Resume((USBD_HandleTypeDef*)hpcd->pData);
 233:USB_DEVICE/Target/usbd_conf.c **** }
 234:USB_DEVICE/Target/usbd_conf.c **** 
 235:USB_DEVICE/Target/usbd_conf.c **** /**
 236:USB_DEVICE/Target/usbd_conf.c ****   * @brief  ISOOUTIncomplete callback.
 237:USB_DEVICE/Target/usbd_conf.c ****   * @param  hpcd: PCD handle
 238:USB_DEVICE/Target/usbd_conf.c ****   * @param  epnum: Endpoint number
 239:USB_DEVICE/Target/usbd_conf.c ****   * @retval None
 240:USB_DEVICE/Target/usbd_conf.c ****   */
 241:USB_DEVICE/Target/usbd_conf.c **** #if (USE_HAL_PCD_REGISTER_CALLBACKS == 1U)
 242:USB_DEVICE/Target/usbd_conf.c **** static void PCD_ISOOUTIncompleteCallback(PCD_HandleTypeDef *hpcd, uint8_t epnum)
 243:USB_DEVICE/Target/usbd_conf.c **** #else
 244:USB_DEVICE/Target/usbd_conf.c **** void HAL_PCD_ISOOUTIncompleteCallback(PCD_HandleTypeDef *hpcd, uint8_t epnum)
 245:USB_DEVICE/Target/usbd_conf.c **** #endif /* USE_HAL_PCD_REGISTER_CALLBACKS */
 246:USB_DEVICE/Target/usbd_conf.c **** {
 247:USB_DEVICE/Target/usbd_conf.c ****   USBD_LL_IsoOUTIncomplete((USBD_HandleTypeDef*)hpcd->pData, epnum);
 248:USB_DEVICE/Target/usbd_conf.c **** }
 249:USB_DEVICE/Target/usbd_conf.c **** 
 250:USB_DEVICE/Target/usbd_conf.c **** /**
 251:USB_DEVICE/Target/usbd_conf.c ****   * @brief  ISOINIncomplete callback.
 252:USB_DEVICE/Target/usbd_conf.c ****   * @param  hpcd: PCD handle
 253:USB_DEVICE/Target/usbd_conf.c ****   * @param  epnum: Endpoint number
 254:USB_DEVICE/Target/usbd_conf.c ****   * @retval None
 255:USB_DEVICE/Target/usbd_conf.c ****   */
 256:USB_DEVICE/Target/usbd_conf.c **** #if (USE_HAL_PCD_REGISTER_CALLBACKS == 1U)
 257:USB_DEVICE/Target/usbd_conf.c **** static void PCD_ISOINIncompleteCallback(PCD_HandleTypeDef *hpcd, uint8_t epnum)
 258:USB_DEVICE/Target/usbd_conf.c **** #else
 259:USB_DEVICE/Target/usbd_conf.c **** void HAL_PCD_ISOINIncompleteCallback(PCD_HandleTypeDef *hpcd, uint8_t epnum)
 260:USB_DEVICE/Target/usbd_conf.c **** #endif /* USE_HAL_PCD_REGISTER_CALLBACKS */
ARM GAS  /tmp/ccoBYPID.s 			page 6


 261:USB_DEVICE/Target/usbd_conf.c **** {
 262:USB_DEVICE/Target/usbd_conf.c ****   USBD_LL_IsoINIncomplete((USBD_HandleTypeDef*)hpcd->pData, epnum);
 263:USB_DEVICE/Target/usbd_conf.c **** }
 264:USB_DEVICE/Target/usbd_conf.c **** 
 265:USB_DEVICE/Target/usbd_conf.c **** /**
 266:USB_DEVICE/Target/usbd_conf.c ****   * @brief  Connect callback.
 267:USB_DEVICE/Target/usbd_conf.c ****   * @param  hpcd: PCD handle
 268:USB_DEVICE/Target/usbd_conf.c ****   * @retval None
 269:USB_DEVICE/Target/usbd_conf.c ****   */
 270:USB_DEVICE/Target/usbd_conf.c **** #if (USE_HAL_PCD_REGISTER_CALLBACKS == 1U)
 271:USB_DEVICE/Target/usbd_conf.c **** static void PCD_ConnectCallback(PCD_HandleTypeDef *hpcd)
 272:USB_DEVICE/Target/usbd_conf.c **** #else
 273:USB_DEVICE/Target/usbd_conf.c **** void HAL_PCD_ConnectCallback(PCD_HandleTypeDef *hpcd)
 274:USB_DEVICE/Target/usbd_conf.c **** #endif /* USE_HAL_PCD_REGISTER_CALLBACKS */
 275:USB_DEVICE/Target/usbd_conf.c **** {
 276:USB_DEVICE/Target/usbd_conf.c ****   USBD_LL_DevConnected((USBD_HandleTypeDef*)hpcd->pData);
 277:USB_DEVICE/Target/usbd_conf.c **** }
 278:USB_DEVICE/Target/usbd_conf.c **** 
 279:USB_DEVICE/Target/usbd_conf.c **** /**
 280:USB_DEVICE/Target/usbd_conf.c ****   * @brief  Disconnect callback.
 281:USB_DEVICE/Target/usbd_conf.c ****   * @param  hpcd: PCD handle
 282:USB_DEVICE/Target/usbd_conf.c ****   * @retval None
 283:USB_DEVICE/Target/usbd_conf.c ****   */
 284:USB_DEVICE/Target/usbd_conf.c **** #if (USE_HAL_PCD_REGISTER_CALLBACKS == 1U)
 285:USB_DEVICE/Target/usbd_conf.c **** static void PCD_DisconnectCallback(PCD_HandleTypeDef *hpcd)
 286:USB_DEVICE/Target/usbd_conf.c **** #else
 287:USB_DEVICE/Target/usbd_conf.c **** void HAL_PCD_DisconnectCallback(PCD_HandleTypeDef *hpcd)
 288:USB_DEVICE/Target/usbd_conf.c **** #endif /* USE_HAL_PCD_REGISTER_CALLBACKS */
 289:USB_DEVICE/Target/usbd_conf.c **** {
 290:USB_DEVICE/Target/usbd_conf.c ****   USBD_LL_DevDisconnected((USBD_HandleTypeDef*)hpcd->pData);
 291:USB_DEVICE/Target/usbd_conf.c **** }
 292:USB_DEVICE/Target/usbd_conf.c **** 
 293:USB_DEVICE/Target/usbd_conf.c **** /*******************************************************************************
 294:USB_DEVICE/Target/usbd_conf.c ****                        LL Driver Interface (USB Device Library --> PCD)
 295:USB_DEVICE/Target/usbd_conf.c **** *******************************************************************************/
 296:USB_DEVICE/Target/usbd_conf.c **** 
 297:USB_DEVICE/Target/usbd_conf.c **** /**
 298:USB_DEVICE/Target/usbd_conf.c ****   * @brief  Initializes the low level portion of the device driver.
 299:USB_DEVICE/Target/usbd_conf.c ****   * @param  pdev: Device handle
 300:USB_DEVICE/Target/usbd_conf.c ****   * @retval USBD status
 301:USB_DEVICE/Target/usbd_conf.c ****   */
 302:USB_DEVICE/Target/usbd_conf.c **** USBD_StatusTypeDef USBD_LL_Init(USBD_HandleTypeDef *pdev)
 303:USB_DEVICE/Target/usbd_conf.c **** {
 304:USB_DEVICE/Target/usbd_conf.c ****   /* Init USB Ip. */
 305:USB_DEVICE/Target/usbd_conf.c ****   /* Link the driver to the stack. */
 306:USB_DEVICE/Target/usbd_conf.c ****   hpcd_USB_FS.pData = pdev;
 307:USB_DEVICE/Target/usbd_conf.c ****   pdev->pData = &hpcd_USB_FS;
 308:USB_DEVICE/Target/usbd_conf.c **** 
 309:USB_DEVICE/Target/usbd_conf.c ****   hpcd_USB_FS.Instance = USB;
 310:USB_DEVICE/Target/usbd_conf.c ****   hpcd_USB_FS.Init.dev_endpoints = 8;
 311:USB_DEVICE/Target/usbd_conf.c ****   hpcd_USB_FS.Init.speed = PCD_SPEED_FULL;
 312:USB_DEVICE/Target/usbd_conf.c ****   hpcd_USB_FS.Init.low_power_enable = DISABLE;
 313:USB_DEVICE/Target/usbd_conf.c ****   hpcd_USB_FS.Init.lpm_enable = DISABLE;
 314:USB_DEVICE/Target/usbd_conf.c ****   hpcd_USB_FS.Init.battery_charging_enable = DISABLE;
 315:USB_DEVICE/Target/usbd_conf.c ****   if (HAL_PCD_Init(&hpcd_USB_FS) != HAL_OK)
 316:USB_DEVICE/Target/usbd_conf.c ****   {
 317:USB_DEVICE/Target/usbd_conf.c ****     Error_Handler( );
ARM GAS  /tmp/ccoBYPID.s 			page 7


 318:USB_DEVICE/Target/usbd_conf.c ****   }
 319:USB_DEVICE/Target/usbd_conf.c **** 
 320:USB_DEVICE/Target/usbd_conf.c **** #if (USE_HAL_PCD_REGISTER_CALLBACKS == 1U)
 321:USB_DEVICE/Target/usbd_conf.c ****   /* Register USB PCD CallBacks */
 322:USB_DEVICE/Target/usbd_conf.c ****   HAL_PCD_RegisterCallback(&hpcd_USB_FS, HAL_PCD_SOF_CB_ID, PCD_SOFCallback);
 323:USB_DEVICE/Target/usbd_conf.c ****   HAL_PCD_RegisterCallback(&hpcd_USB_FS, HAL_PCD_SETUPSTAGE_CB_ID, PCD_SetupStageCallback);
 324:USB_DEVICE/Target/usbd_conf.c ****   HAL_PCD_RegisterCallback(&hpcd_USB_FS, HAL_PCD_RESET_CB_ID, PCD_ResetCallback);
 325:USB_DEVICE/Target/usbd_conf.c ****   HAL_PCD_RegisterCallback(&hpcd_USB_FS, HAL_PCD_SUSPEND_CB_ID, PCD_SuspendCallback);
 326:USB_DEVICE/Target/usbd_conf.c ****   HAL_PCD_RegisterCallback(&hpcd_USB_FS, HAL_PCD_RESUME_CB_ID, PCD_ResumeCallback);
 327:USB_DEVICE/Target/usbd_conf.c ****   HAL_PCD_RegisterCallback(&hpcd_USB_FS, HAL_PCD_CONNECT_CB_ID, PCD_ConnectCallback);
 328:USB_DEVICE/Target/usbd_conf.c ****   HAL_PCD_RegisterCallback(&hpcd_USB_FS, HAL_PCD_DISCONNECT_CB_ID, PCD_DisconnectCallback);
 329:USB_DEVICE/Target/usbd_conf.c **** 
 330:USB_DEVICE/Target/usbd_conf.c ****   HAL_PCD_RegisterDataOutStageCallback(&hpcd_USB_FS, PCD_DataOutStageCallback);
 331:USB_DEVICE/Target/usbd_conf.c ****   HAL_PCD_RegisterDataInStageCallback(&hpcd_USB_FS, PCD_DataInStageCallback);
 332:USB_DEVICE/Target/usbd_conf.c ****   HAL_PCD_RegisterIsoOutIncpltCallback(&hpcd_USB_FS, PCD_ISOOUTIncompleteCallback);
 333:USB_DEVICE/Target/usbd_conf.c ****   HAL_PCD_RegisterIsoInIncpltCallback(&hpcd_USB_FS, PCD_ISOINIncompleteCallback);
 334:USB_DEVICE/Target/usbd_conf.c **** #endif /* USE_HAL_PCD_REGISTER_CALLBACKS */
 335:USB_DEVICE/Target/usbd_conf.c ****   /* USER CODE BEGIN EndPoint_Configuration */
 336:USB_DEVICE/Target/usbd_conf.c ****   HAL_PCDEx_PMAConfig((PCD_HandleTypeDef*)pdev->pData , 0x00 , PCD_SNG_BUF, 0x18);
 337:USB_DEVICE/Target/usbd_conf.c ****   HAL_PCDEx_PMAConfig((PCD_HandleTypeDef*)pdev->pData , 0x80 , PCD_SNG_BUF, 0x58);
 338:USB_DEVICE/Target/usbd_conf.c ****   /* USER CODE END EndPoint_Configuration */
 339:USB_DEVICE/Target/usbd_conf.c ****   /* USER CODE BEGIN EndPoint_Configuration_CDC */
 340:USB_DEVICE/Target/usbd_conf.c ****   HAL_PCDEx_PMAConfig((PCD_HandleTypeDef*)pdev->pData , 0x81 , PCD_SNG_BUF, 0xC0);
 341:USB_DEVICE/Target/usbd_conf.c ****   HAL_PCDEx_PMAConfig((PCD_HandleTypeDef*)pdev->pData , 0x01 , PCD_SNG_BUF, 0x110);
 342:USB_DEVICE/Target/usbd_conf.c ****   HAL_PCDEx_PMAConfig((PCD_HandleTypeDef*)pdev->pData , 0x82 , PCD_SNG_BUF, 0x100);
 343:USB_DEVICE/Target/usbd_conf.c ****   /* USER CODE END EndPoint_Configuration_CDC */
 344:USB_DEVICE/Target/usbd_conf.c ****   return USBD_OK;
 345:USB_DEVICE/Target/usbd_conf.c **** }
 346:USB_DEVICE/Target/usbd_conf.c **** 
 347:USB_DEVICE/Target/usbd_conf.c **** /**
 348:USB_DEVICE/Target/usbd_conf.c ****   * @brief  De-Initializes the low level portion of the device driver.
 349:USB_DEVICE/Target/usbd_conf.c ****   * @param  pdev: Device handle
 350:USB_DEVICE/Target/usbd_conf.c ****   * @retval USBD status
 351:USB_DEVICE/Target/usbd_conf.c ****   */
 352:USB_DEVICE/Target/usbd_conf.c **** USBD_StatusTypeDef USBD_LL_DeInit(USBD_HandleTypeDef *pdev)
 353:USB_DEVICE/Target/usbd_conf.c **** {
 354:USB_DEVICE/Target/usbd_conf.c ****   HAL_StatusTypeDef hal_status = HAL_OK;
 355:USB_DEVICE/Target/usbd_conf.c ****   USBD_StatusTypeDef usb_status = USBD_OK;
 356:USB_DEVICE/Target/usbd_conf.c **** 
 357:USB_DEVICE/Target/usbd_conf.c ****   hal_status = HAL_PCD_DeInit(pdev->pData);
 358:USB_DEVICE/Target/usbd_conf.c **** 
 359:USB_DEVICE/Target/usbd_conf.c ****   usb_status =  USBD_Get_USB_Status(hal_status);
 360:USB_DEVICE/Target/usbd_conf.c **** 
 361:USB_DEVICE/Target/usbd_conf.c ****   return usb_status;
 362:USB_DEVICE/Target/usbd_conf.c **** }
 363:USB_DEVICE/Target/usbd_conf.c **** 
 364:USB_DEVICE/Target/usbd_conf.c **** /**
 365:USB_DEVICE/Target/usbd_conf.c ****   * @brief  Starts the low level portion of the device driver.
 366:USB_DEVICE/Target/usbd_conf.c ****   * @param  pdev: Device handle
 367:USB_DEVICE/Target/usbd_conf.c ****   * @retval USBD status
 368:USB_DEVICE/Target/usbd_conf.c ****   */
 369:USB_DEVICE/Target/usbd_conf.c **** USBD_StatusTypeDef USBD_LL_Start(USBD_HandleTypeDef *pdev)
 370:USB_DEVICE/Target/usbd_conf.c **** {
 371:USB_DEVICE/Target/usbd_conf.c ****   HAL_StatusTypeDef hal_status = HAL_OK;
 372:USB_DEVICE/Target/usbd_conf.c ****   USBD_StatusTypeDef usb_status = USBD_OK;
 373:USB_DEVICE/Target/usbd_conf.c **** 
 374:USB_DEVICE/Target/usbd_conf.c ****   hal_status = HAL_PCD_Start(pdev->pData);
ARM GAS  /tmp/ccoBYPID.s 			page 8


 375:USB_DEVICE/Target/usbd_conf.c **** 
 376:USB_DEVICE/Target/usbd_conf.c ****   usb_status =  USBD_Get_USB_Status(hal_status);
 377:USB_DEVICE/Target/usbd_conf.c **** 
 378:USB_DEVICE/Target/usbd_conf.c ****   return usb_status;
 379:USB_DEVICE/Target/usbd_conf.c **** }
 380:USB_DEVICE/Target/usbd_conf.c **** 
 381:USB_DEVICE/Target/usbd_conf.c **** /**
 382:USB_DEVICE/Target/usbd_conf.c ****   * @brief  Stops the low level portion of the device driver.
 383:USB_DEVICE/Target/usbd_conf.c ****   * @param  pdev: Device handle
 384:USB_DEVICE/Target/usbd_conf.c ****   * @retval USBD status
 385:USB_DEVICE/Target/usbd_conf.c ****   */
 386:USB_DEVICE/Target/usbd_conf.c **** USBD_StatusTypeDef USBD_LL_Stop(USBD_HandleTypeDef *pdev)
 387:USB_DEVICE/Target/usbd_conf.c **** {
 388:USB_DEVICE/Target/usbd_conf.c ****   HAL_StatusTypeDef hal_status = HAL_OK;
 389:USB_DEVICE/Target/usbd_conf.c ****   USBD_StatusTypeDef usb_status = USBD_OK;
 390:USB_DEVICE/Target/usbd_conf.c **** 
 391:USB_DEVICE/Target/usbd_conf.c ****   hal_status = HAL_PCD_Stop(pdev->pData);
 392:USB_DEVICE/Target/usbd_conf.c **** 
 393:USB_DEVICE/Target/usbd_conf.c ****   usb_status =  USBD_Get_USB_Status(hal_status);
 394:USB_DEVICE/Target/usbd_conf.c **** 
 395:USB_DEVICE/Target/usbd_conf.c ****   return usb_status;
 396:USB_DEVICE/Target/usbd_conf.c **** }
 397:USB_DEVICE/Target/usbd_conf.c **** 
 398:USB_DEVICE/Target/usbd_conf.c **** /**
 399:USB_DEVICE/Target/usbd_conf.c ****   * @brief  Opens an endpoint of the low level driver.
 400:USB_DEVICE/Target/usbd_conf.c ****   * @param  pdev: Device handle
 401:USB_DEVICE/Target/usbd_conf.c ****   * @param  ep_addr: Endpoint number
 402:USB_DEVICE/Target/usbd_conf.c ****   * @param  ep_type: Endpoint type
 403:USB_DEVICE/Target/usbd_conf.c ****   * @param  ep_mps: Endpoint max packet size
 404:USB_DEVICE/Target/usbd_conf.c ****   * @retval USBD status
 405:USB_DEVICE/Target/usbd_conf.c ****   */
 406:USB_DEVICE/Target/usbd_conf.c **** USBD_StatusTypeDef USBD_LL_OpenEP(USBD_HandleTypeDef *pdev, uint8_t ep_addr, uint8_t ep_type, uint1
 407:USB_DEVICE/Target/usbd_conf.c **** {
 408:USB_DEVICE/Target/usbd_conf.c ****   HAL_StatusTypeDef hal_status = HAL_OK;
 409:USB_DEVICE/Target/usbd_conf.c ****   USBD_StatusTypeDef usb_status = USBD_OK;
 410:USB_DEVICE/Target/usbd_conf.c **** 
 411:USB_DEVICE/Target/usbd_conf.c ****   hal_status = HAL_PCD_EP_Open(pdev->pData, ep_addr, ep_mps, ep_type);
 412:USB_DEVICE/Target/usbd_conf.c **** 
 413:USB_DEVICE/Target/usbd_conf.c ****   usb_status =  USBD_Get_USB_Status(hal_status);
 414:USB_DEVICE/Target/usbd_conf.c **** 
 415:USB_DEVICE/Target/usbd_conf.c ****   return usb_status;
 416:USB_DEVICE/Target/usbd_conf.c **** }
 417:USB_DEVICE/Target/usbd_conf.c **** 
 418:USB_DEVICE/Target/usbd_conf.c **** /**
 419:USB_DEVICE/Target/usbd_conf.c ****   * @brief  Closes an endpoint of the low level driver.
 420:USB_DEVICE/Target/usbd_conf.c ****   * @param  pdev: Device handle
 421:USB_DEVICE/Target/usbd_conf.c ****   * @param  ep_addr: Endpoint number
 422:USB_DEVICE/Target/usbd_conf.c ****   * @retval USBD status
 423:USB_DEVICE/Target/usbd_conf.c ****   */
 424:USB_DEVICE/Target/usbd_conf.c **** USBD_StatusTypeDef USBD_LL_CloseEP(USBD_HandleTypeDef *pdev, uint8_t ep_addr)
 425:USB_DEVICE/Target/usbd_conf.c **** {
 426:USB_DEVICE/Target/usbd_conf.c ****   HAL_StatusTypeDef hal_status = HAL_OK;
 427:USB_DEVICE/Target/usbd_conf.c ****   USBD_StatusTypeDef usb_status = USBD_OK;
 428:USB_DEVICE/Target/usbd_conf.c **** 
 429:USB_DEVICE/Target/usbd_conf.c ****   hal_status = HAL_PCD_EP_Close(pdev->pData, ep_addr);
 430:USB_DEVICE/Target/usbd_conf.c **** 
 431:USB_DEVICE/Target/usbd_conf.c ****   usb_status =  USBD_Get_USB_Status(hal_status);
ARM GAS  /tmp/ccoBYPID.s 			page 9


 432:USB_DEVICE/Target/usbd_conf.c **** 
 433:USB_DEVICE/Target/usbd_conf.c ****   return usb_status;
 434:USB_DEVICE/Target/usbd_conf.c **** }
 435:USB_DEVICE/Target/usbd_conf.c **** 
 436:USB_DEVICE/Target/usbd_conf.c **** /**
 437:USB_DEVICE/Target/usbd_conf.c ****   * @brief  Flushes an endpoint of the Low Level Driver.
 438:USB_DEVICE/Target/usbd_conf.c ****   * @param  pdev: Device handle
 439:USB_DEVICE/Target/usbd_conf.c ****   * @param  ep_addr: Endpoint number
 440:USB_DEVICE/Target/usbd_conf.c ****   * @retval USBD status
 441:USB_DEVICE/Target/usbd_conf.c ****   */
 442:USB_DEVICE/Target/usbd_conf.c **** USBD_StatusTypeDef USBD_LL_FlushEP(USBD_HandleTypeDef *pdev, uint8_t ep_addr)
 443:USB_DEVICE/Target/usbd_conf.c **** {
 444:USB_DEVICE/Target/usbd_conf.c ****   HAL_StatusTypeDef hal_status = HAL_OK;
 445:USB_DEVICE/Target/usbd_conf.c ****   USBD_StatusTypeDef usb_status = USBD_OK;
 446:USB_DEVICE/Target/usbd_conf.c **** 
 447:USB_DEVICE/Target/usbd_conf.c ****   hal_status = HAL_PCD_EP_Flush(pdev->pData, ep_addr);
 448:USB_DEVICE/Target/usbd_conf.c **** 
 449:USB_DEVICE/Target/usbd_conf.c ****   usb_status =  USBD_Get_USB_Status(hal_status);
 450:USB_DEVICE/Target/usbd_conf.c **** 
 451:USB_DEVICE/Target/usbd_conf.c ****   return usb_status;
 452:USB_DEVICE/Target/usbd_conf.c **** }
 453:USB_DEVICE/Target/usbd_conf.c **** 
 454:USB_DEVICE/Target/usbd_conf.c **** /**
 455:USB_DEVICE/Target/usbd_conf.c ****   * @brief  Sets a Stall condition on an endpoint of the Low Level Driver.
 456:USB_DEVICE/Target/usbd_conf.c ****   * @param  pdev: Device handle
 457:USB_DEVICE/Target/usbd_conf.c ****   * @param  ep_addr: Endpoint number
 458:USB_DEVICE/Target/usbd_conf.c ****   * @retval USBD status
 459:USB_DEVICE/Target/usbd_conf.c ****   */
 460:USB_DEVICE/Target/usbd_conf.c **** USBD_StatusTypeDef USBD_LL_StallEP(USBD_HandleTypeDef *pdev, uint8_t ep_addr)
 461:USB_DEVICE/Target/usbd_conf.c **** {
 462:USB_DEVICE/Target/usbd_conf.c ****   HAL_StatusTypeDef hal_status = HAL_OK;
 463:USB_DEVICE/Target/usbd_conf.c ****   USBD_StatusTypeDef usb_status = USBD_OK;
 464:USB_DEVICE/Target/usbd_conf.c **** 
 465:USB_DEVICE/Target/usbd_conf.c ****   hal_status = HAL_PCD_EP_SetStall(pdev->pData, ep_addr);
 466:USB_DEVICE/Target/usbd_conf.c **** 
 467:USB_DEVICE/Target/usbd_conf.c ****   usb_status =  USBD_Get_USB_Status(hal_status);
 468:USB_DEVICE/Target/usbd_conf.c **** 
 469:USB_DEVICE/Target/usbd_conf.c ****   return usb_status;
 470:USB_DEVICE/Target/usbd_conf.c **** }
 471:USB_DEVICE/Target/usbd_conf.c **** 
 472:USB_DEVICE/Target/usbd_conf.c **** /**
 473:USB_DEVICE/Target/usbd_conf.c ****   * @brief  Clears a Stall condition on an endpoint of the Low Level Driver.
 474:USB_DEVICE/Target/usbd_conf.c ****   * @param  pdev: Device handle
 475:USB_DEVICE/Target/usbd_conf.c ****   * @param  ep_addr: Endpoint number
 476:USB_DEVICE/Target/usbd_conf.c ****   * @retval USBD status
 477:USB_DEVICE/Target/usbd_conf.c ****   */
 478:USB_DEVICE/Target/usbd_conf.c **** USBD_StatusTypeDef USBD_LL_ClearStallEP(USBD_HandleTypeDef *pdev, uint8_t ep_addr)
 479:USB_DEVICE/Target/usbd_conf.c **** {
 480:USB_DEVICE/Target/usbd_conf.c ****   HAL_StatusTypeDef hal_status = HAL_OK;
 481:USB_DEVICE/Target/usbd_conf.c ****   USBD_StatusTypeDef usb_status = USBD_OK;
 482:USB_DEVICE/Target/usbd_conf.c **** 
 483:USB_DEVICE/Target/usbd_conf.c ****   hal_status = HAL_PCD_EP_ClrStall(pdev->pData, ep_addr);
 484:USB_DEVICE/Target/usbd_conf.c **** 
 485:USB_DEVICE/Target/usbd_conf.c ****   usb_status =  USBD_Get_USB_Status(hal_status);
 486:USB_DEVICE/Target/usbd_conf.c **** 
 487:USB_DEVICE/Target/usbd_conf.c ****   return usb_status;
 488:USB_DEVICE/Target/usbd_conf.c **** }
ARM GAS  /tmp/ccoBYPID.s 			page 10


 489:USB_DEVICE/Target/usbd_conf.c **** 
 490:USB_DEVICE/Target/usbd_conf.c **** /**
 491:USB_DEVICE/Target/usbd_conf.c ****   * @brief  Returns Stall condition.
 492:USB_DEVICE/Target/usbd_conf.c ****   * @param  pdev: Device handle
 493:USB_DEVICE/Target/usbd_conf.c ****   * @param  ep_addr: Endpoint number
 494:USB_DEVICE/Target/usbd_conf.c ****   * @retval Stall (1: Yes, 0: No)
 495:USB_DEVICE/Target/usbd_conf.c ****   */
 496:USB_DEVICE/Target/usbd_conf.c **** uint8_t USBD_LL_IsStallEP(USBD_HandleTypeDef *pdev, uint8_t ep_addr)
 497:USB_DEVICE/Target/usbd_conf.c **** {
 498:USB_DEVICE/Target/usbd_conf.c ****   PCD_HandleTypeDef *hpcd = (PCD_HandleTypeDef*) pdev->pData;
 499:USB_DEVICE/Target/usbd_conf.c **** 
 500:USB_DEVICE/Target/usbd_conf.c ****   if((ep_addr & 0x80) == 0x80)
 501:USB_DEVICE/Target/usbd_conf.c ****   {
 502:USB_DEVICE/Target/usbd_conf.c ****     return hpcd->IN_ep[ep_addr & 0x7F].is_stall;
 503:USB_DEVICE/Target/usbd_conf.c ****   }
 504:USB_DEVICE/Target/usbd_conf.c ****   else
 505:USB_DEVICE/Target/usbd_conf.c ****   {
 506:USB_DEVICE/Target/usbd_conf.c ****     return hpcd->OUT_ep[ep_addr & 0x7F].is_stall;
 507:USB_DEVICE/Target/usbd_conf.c ****   }
 508:USB_DEVICE/Target/usbd_conf.c **** }
 509:USB_DEVICE/Target/usbd_conf.c **** 
 510:USB_DEVICE/Target/usbd_conf.c **** /**
 511:USB_DEVICE/Target/usbd_conf.c ****   * @brief  Assigns a USB address to the device.
 512:USB_DEVICE/Target/usbd_conf.c ****   * @param  pdev: Device handle
 513:USB_DEVICE/Target/usbd_conf.c ****   * @param  dev_addr: Device address
 514:USB_DEVICE/Target/usbd_conf.c ****   * @retval USBD status
 515:USB_DEVICE/Target/usbd_conf.c ****   */
 516:USB_DEVICE/Target/usbd_conf.c **** USBD_StatusTypeDef USBD_LL_SetUSBAddress(USBD_HandleTypeDef *pdev, uint8_t dev_addr)
 517:USB_DEVICE/Target/usbd_conf.c **** {
 518:USB_DEVICE/Target/usbd_conf.c ****   HAL_StatusTypeDef hal_status = HAL_OK;
 519:USB_DEVICE/Target/usbd_conf.c ****   USBD_StatusTypeDef usb_status = USBD_OK;
 520:USB_DEVICE/Target/usbd_conf.c **** 
 521:USB_DEVICE/Target/usbd_conf.c ****   hal_status = HAL_PCD_SetAddress(pdev->pData, dev_addr);
 522:USB_DEVICE/Target/usbd_conf.c **** 
 523:USB_DEVICE/Target/usbd_conf.c ****   usb_status =  USBD_Get_USB_Status(hal_status);
 524:USB_DEVICE/Target/usbd_conf.c **** 
 525:USB_DEVICE/Target/usbd_conf.c ****   return usb_status;
 526:USB_DEVICE/Target/usbd_conf.c **** }
 527:USB_DEVICE/Target/usbd_conf.c **** 
 528:USB_DEVICE/Target/usbd_conf.c **** /**
 529:USB_DEVICE/Target/usbd_conf.c ****   * @brief  Transmits data over an endpoint.
 530:USB_DEVICE/Target/usbd_conf.c ****   * @param  pdev: Device handle
 531:USB_DEVICE/Target/usbd_conf.c ****   * @param  ep_addr: Endpoint number
 532:USB_DEVICE/Target/usbd_conf.c ****   * @param  pbuf: Pointer to data to be sent
 533:USB_DEVICE/Target/usbd_conf.c ****   * @param  size: Data size
 534:USB_DEVICE/Target/usbd_conf.c ****   * @retval USBD status
 535:USB_DEVICE/Target/usbd_conf.c ****   */
 536:USB_DEVICE/Target/usbd_conf.c **** USBD_StatusTypeDef USBD_LL_Transmit(USBD_HandleTypeDef *pdev, uint8_t ep_addr, uint8_t *pbuf, uint1
 537:USB_DEVICE/Target/usbd_conf.c **** {
 538:USB_DEVICE/Target/usbd_conf.c ****   HAL_StatusTypeDef hal_status = HAL_OK;
 539:USB_DEVICE/Target/usbd_conf.c ****   USBD_StatusTypeDef usb_status = USBD_OK;
 540:USB_DEVICE/Target/usbd_conf.c **** 
 541:USB_DEVICE/Target/usbd_conf.c ****   hal_status = HAL_PCD_EP_Transmit(pdev->pData, ep_addr, pbuf, size);
 542:USB_DEVICE/Target/usbd_conf.c **** 
 543:USB_DEVICE/Target/usbd_conf.c ****   usb_status =  USBD_Get_USB_Status(hal_status);
 544:USB_DEVICE/Target/usbd_conf.c **** 
 545:USB_DEVICE/Target/usbd_conf.c ****   return usb_status;
ARM GAS  /tmp/ccoBYPID.s 			page 11


 546:USB_DEVICE/Target/usbd_conf.c **** }
 547:USB_DEVICE/Target/usbd_conf.c **** 
 548:USB_DEVICE/Target/usbd_conf.c **** /**
 549:USB_DEVICE/Target/usbd_conf.c ****   * @brief  Prepares an endpoint for reception.
 550:USB_DEVICE/Target/usbd_conf.c ****   * @param  pdev: Device handle
 551:USB_DEVICE/Target/usbd_conf.c ****   * @param  ep_addr: Endpoint number
 552:USB_DEVICE/Target/usbd_conf.c ****   * @param  pbuf: Pointer to data to be received
 553:USB_DEVICE/Target/usbd_conf.c ****   * @param  size: Data size
 554:USB_DEVICE/Target/usbd_conf.c ****   * @retval USBD status
 555:USB_DEVICE/Target/usbd_conf.c ****   */
 556:USB_DEVICE/Target/usbd_conf.c **** USBD_StatusTypeDef USBD_LL_PrepareReceive(USBD_HandleTypeDef *pdev, uint8_t ep_addr, uint8_t *pbuf,
 557:USB_DEVICE/Target/usbd_conf.c **** {
 558:USB_DEVICE/Target/usbd_conf.c ****   HAL_StatusTypeDef hal_status = HAL_OK;
 559:USB_DEVICE/Target/usbd_conf.c ****   USBD_StatusTypeDef usb_status = USBD_OK;
 560:USB_DEVICE/Target/usbd_conf.c **** 
 561:USB_DEVICE/Target/usbd_conf.c ****   hal_status = HAL_PCD_EP_Receive(pdev->pData, ep_addr, pbuf, size);
 562:USB_DEVICE/Target/usbd_conf.c **** 
 563:USB_DEVICE/Target/usbd_conf.c ****   usb_status =  USBD_Get_USB_Status(hal_status);
 564:USB_DEVICE/Target/usbd_conf.c **** 
 565:USB_DEVICE/Target/usbd_conf.c ****   return usb_status;
 566:USB_DEVICE/Target/usbd_conf.c **** }
 567:USB_DEVICE/Target/usbd_conf.c **** 
 568:USB_DEVICE/Target/usbd_conf.c **** /**
 569:USB_DEVICE/Target/usbd_conf.c ****   * @brief  Returns the last transferred packet size.
 570:USB_DEVICE/Target/usbd_conf.c ****   * @param  pdev: Device handle
 571:USB_DEVICE/Target/usbd_conf.c ****   * @param  ep_addr: Endpoint number
 572:USB_DEVICE/Target/usbd_conf.c ****   * @retval Received Data Size
 573:USB_DEVICE/Target/usbd_conf.c ****   */
 574:USB_DEVICE/Target/usbd_conf.c **** uint32_t USBD_LL_GetRxDataSize(USBD_HandleTypeDef *pdev, uint8_t ep_addr)
 575:USB_DEVICE/Target/usbd_conf.c **** {
 576:USB_DEVICE/Target/usbd_conf.c ****   return HAL_PCD_EP_GetRxCount((PCD_HandleTypeDef*) pdev->pData, ep_addr);
 577:USB_DEVICE/Target/usbd_conf.c **** }
 578:USB_DEVICE/Target/usbd_conf.c **** 
 579:USB_DEVICE/Target/usbd_conf.c **** /**
 580:USB_DEVICE/Target/usbd_conf.c ****   * @brief  Delays routine for the USB device library.
 581:USB_DEVICE/Target/usbd_conf.c ****   * @param  Delay: Delay in ms
 582:USB_DEVICE/Target/usbd_conf.c ****   * @retval None
 583:USB_DEVICE/Target/usbd_conf.c ****   */
 584:USB_DEVICE/Target/usbd_conf.c **** void USBD_LL_Delay(uint32_t Delay)
 585:USB_DEVICE/Target/usbd_conf.c **** {
 586:USB_DEVICE/Target/usbd_conf.c ****   HAL_Delay(Delay);
 587:USB_DEVICE/Target/usbd_conf.c **** }
 588:USB_DEVICE/Target/usbd_conf.c **** 
 589:USB_DEVICE/Target/usbd_conf.c **** /**
 590:USB_DEVICE/Target/usbd_conf.c ****   * @brief  Static single allocation.
 591:USB_DEVICE/Target/usbd_conf.c ****   * @param  size: Size of allocated memory
 592:USB_DEVICE/Target/usbd_conf.c ****   * @retval None
 593:USB_DEVICE/Target/usbd_conf.c ****   */
 594:USB_DEVICE/Target/usbd_conf.c **** void *USBD_static_malloc(uint32_t size)
 595:USB_DEVICE/Target/usbd_conf.c **** {
 596:USB_DEVICE/Target/usbd_conf.c ****   static uint32_t mem[(sizeof(USBD_CDC_HandleTypeDef)/4)+1];/* On 32-bit boundary */
 597:USB_DEVICE/Target/usbd_conf.c ****   return mem;
 598:USB_DEVICE/Target/usbd_conf.c **** }
 599:USB_DEVICE/Target/usbd_conf.c **** 
 600:USB_DEVICE/Target/usbd_conf.c **** /**
 601:USB_DEVICE/Target/usbd_conf.c ****   * @brief  Dummy memory free
 602:USB_DEVICE/Target/usbd_conf.c ****   * @param  p: Pointer to allocated  memory address
ARM GAS  /tmp/ccoBYPID.s 			page 12


 603:USB_DEVICE/Target/usbd_conf.c ****   * @retval None
 604:USB_DEVICE/Target/usbd_conf.c ****   */
 605:USB_DEVICE/Target/usbd_conf.c **** void USBD_static_free(void *p)
 606:USB_DEVICE/Target/usbd_conf.c **** {
 607:USB_DEVICE/Target/usbd_conf.c **** 
 608:USB_DEVICE/Target/usbd_conf.c **** }
 609:USB_DEVICE/Target/usbd_conf.c **** 
 610:USB_DEVICE/Target/usbd_conf.c **** /**
 611:USB_DEVICE/Target/usbd_conf.c ****   * @brief Software Device Connection
 612:USB_DEVICE/Target/usbd_conf.c ****   * @param hpcd: PCD handle
 613:USB_DEVICE/Target/usbd_conf.c ****   * @param state: Connection state (0: disconnected / 1: connected)
 614:USB_DEVICE/Target/usbd_conf.c ****   * @retval None
 615:USB_DEVICE/Target/usbd_conf.c ****   */
 616:USB_DEVICE/Target/usbd_conf.c **** #if (USE_HAL_PCD_REGISTER_CALLBACKS == 1U)
 617:USB_DEVICE/Target/usbd_conf.c **** static void PCDEx_SetConnectionState(PCD_HandleTypeDef *hpcd, uint8_t state)
 618:USB_DEVICE/Target/usbd_conf.c **** #else
 619:USB_DEVICE/Target/usbd_conf.c **** void HAL_PCDEx_SetConnectionState(PCD_HandleTypeDef *hpcd, uint8_t state)
 620:USB_DEVICE/Target/usbd_conf.c **** #endif /* USE_HAL_PCD_REGISTER_CALLBACKS */
 621:USB_DEVICE/Target/usbd_conf.c **** {
 622:USB_DEVICE/Target/usbd_conf.c ****   /* USER CODE BEGIN 6 */
 623:USB_DEVICE/Target/usbd_conf.c ****   if (state == 1)
 624:USB_DEVICE/Target/usbd_conf.c ****   {
 625:USB_DEVICE/Target/usbd_conf.c ****     /* Configure Low connection state. */
 626:USB_DEVICE/Target/usbd_conf.c **** 
 627:USB_DEVICE/Target/usbd_conf.c ****   }
 628:USB_DEVICE/Target/usbd_conf.c ****   else
 629:USB_DEVICE/Target/usbd_conf.c ****   {
 630:USB_DEVICE/Target/usbd_conf.c ****     /* Configure High connection state. */
 631:USB_DEVICE/Target/usbd_conf.c **** 
 632:USB_DEVICE/Target/usbd_conf.c ****   }
 633:USB_DEVICE/Target/usbd_conf.c ****   /* USER CODE END 6 */
 634:USB_DEVICE/Target/usbd_conf.c **** }
 635:USB_DEVICE/Target/usbd_conf.c **** 
 636:USB_DEVICE/Target/usbd_conf.c **** /**
 637:USB_DEVICE/Target/usbd_conf.c ****   * @brief  Returns the USB status depending on the HAL status:
 638:USB_DEVICE/Target/usbd_conf.c ****   * @param  hal_status: HAL status
 639:USB_DEVICE/Target/usbd_conf.c ****   * @retval USB status
 640:USB_DEVICE/Target/usbd_conf.c ****   */
 641:USB_DEVICE/Target/usbd_conf.c **** USBD_StatusTypeDef USBD_Get_USB_Status(HAL_StatusTypeDef hal_status)
 642:USB_DEVICE/Target/usbd_conf.c **** {
  27              		.loc 1 642 1 view -0
  28              		.cfi_startproc
  29              		@ args = 0, pretend = 0, frame = 0
  30              		@ frame_needed = 0, uses_anonymous_args = 0
  31              		@ link register save eliminated.
 643:USB_DEVICE/Target/usbd_conf.c ****   USBD_StatusTypeDef usb_status = USBD_OK;
  32              		.loc 1 643 3 view .LVU1
 644:USB_DEVICE/Target/usbd_conf.c **** 
 645:USB_DEVICE/Target/usbd_conf.c ****   switch (hal_status)
  33              		.loc 1 645 3 view .LVU2
  34 0000 0228     		cmp	r0, #2
  35 0002 04D0     		beq	.L3
  36 0004 05D8     		bhi	.L4
  37 0006 08B1     		cbz	r0, .L6
 646:USB_DEVICE/Target/usbd_conf.c ****   {
 647:USB_DEVICE/Target/usbd_conf.c ****     case HAL_OK :
 648:USB_DEVICE/Target/usbd_conf.c ****       usb_status = USBD_OK;
ARM GAS  /tmp/ccoBYPID.s 			page 13


 649:USB_DEVICE/Target/usbd_conf.c ****     break;
 650:USB_DEVICE/Target/usbd_conf.c ****     case HAL_ERROR :
 651:USB_DEVICE/Target/usbd_conf.c ****       usb_status = USBD_FAIL;
  38              		.loc 1 651 18 is_stmt 0 view .LVU3
  39 0008 0220     		movs	r0, #2
  40              	.LVL1:
 652:USB_DEVICE/Target/usbd_conf.c ****     break;
 653:USB_DEVICE/Target/usbd_conf.c ****     case HAL_BUSY :
 654:USB_DEVICE/Target/usbd_conf.c ****       usb_status = USBD_BUSY;
 655:USB_DEVICE/Target/usbd_conf.c ****     break;
 656:USB_DEVICE/Target/usbd_conf.c ****     case HAL_TIMEOUT :
 657:USB_DEVICE/Target/usbd_conf.c ****       usb_status = USBD_FAIL;
 658:USB_DEVICE/Target/usbd_conf.c ****     break;
 659:USB_DEVICE/Target/usbd_conf.c ****     default :
 660:USB_DEVICE/Target/usbd_conf.c ****       usb_status = USBD_FAIL;
 661:USB_DEVICE/Target/usbd_conf.c ****     break;
 662:USB_DEVICE/Target/usbd_conf.c ****   }
 663:USB_DEVICE/Target/usbd_conf.c ****   return usb_status;
  41              		.loc 1 663 3 is_stmt 1 view .LVU4
 664:USB_DEVICE/Target/usbd_conf.c **** }
  42              		.loc 1 664 1 is_stmt 0 view .LVU5
  43 000a 7047     		bx	lr
  44              	.LVL2:
  45              	.L6:
  46              		.loc 1 664 1 view .LVU6
  47 000c 7047     		bx	lr
  48              	.L3:
 654:USB_DEVICE/Target/usbd_conf.c ****     break;
  49              		.loc 1 654 18 view .LVU7
  50 000e 0120     		movs	r0, #1
  51              	.LVL3:
 654:USB_DEVICE/Target/usbd_conf.c ****     break;
  52              		.loc 1 654 18 view .LVU8
  53 0010 7047     		bx	lr
  54              	.LVL4:
  55              	.L4:
 657:USB_DEVICE/Target/usbd_conf.c ****     break;
  56              		.loc 1 657 18 view .LVU9
  57 0012 0220     		movs	r0, #2
  58              	.LVL5:
 657:USB_DEVICE/Target/usbd_conf.c ****     break;
  59              		.loc 1 657 18 view .LVU10
  60 0014 7047     		bx	lr
  61              		.cfi_endproc
  62              	.LFE99:
  64              		.section	.text.HAL_PCD_MspInit,"ax",%progbits
  65              		.align	1
  66              		.global	HAL_PCD_MspInit
  67              		.syntax unified
  68              		.thumb
  69              		.thumb_func
  71              	HAL_PCD_MspInit:
  72              	.LVL6:
  73              	.LFB68:
  70:USB_DEVICE/Target/usbd_conf.c ****   if(pcdHandle->Instance==USB)
  74              		.loc 1 70 1 is_stmt 1 view -0
  75              		.cfi_startproc
ARM GAS  /tmp/ccoBYPID.s 			page 14


  76              		@ args = 0, pretend = 0, frame = 8
  77              		@ frame_needed = 0, uses_anonymous_args = 0
  71:USB_DEVICE/Target/usbd_conf.c ****   {
  78              		.loc 1 71 3 view .LVU12
  71:USB_DEVICE/Target/usbd_conf.c ****   {
  79              		.loc 1 71 15 is_stmt 0 view .LVU13
  80 0000 0268     		ldr	r2, [r0]
  71:USB_DEVICE/Target/usbd_conf.c ****   {
  81              		.loc 1 71 5 view .LVU14
  82 0002 114B     		ldr	r3, .L14
  83 0004 9A42     		cmp	r2, r3
  84 0006 00D0     		beq	.L13
  85 0008 7047     		bx	lr
  86              	.L13:
  70:USB_DEVICE/Target/usbd_conf.c ****   if(pcdHandle->Instance==USB)
  87              		.loc 1 70 1 view .LVU15
  88 000a 00B5     		push	{lr}
  89              	.LCFI0:
  90              		.cfi_def_cfa_offset 4
  91              		.cfi_offset 14, -4
  92 000c 83B0     		sub	sp, sp, #12
  93              	.LCFI1:
  94              		.cfi_def_cfa_offset 16
  77:USB_DEVICE/Target/usbd_conf.c **** 
  95              		.loc 1 77 5 is_stmt 1 view .LVU16
  96              	.LBB2:
  77:USB_DEVICE/Target/usbd_conf.c **** 
  97              		.loc 1 77 5 view .LVU17
  77:USB_DEVICE/Target/usbd_conf.c **** 
  98              		.loc 1 77 5 view .LVU18
  99 000e 03F5DA33 		add	r3, r3, #111616
 100 0012 DA69     		ldr	r2, [r3, #28]
 101 0014 42F40002 		orr	r2, r2, #8388608
 102 0018 DA61     		str	r2, [r3, #28]
  77:USB_DEVICE/Target/usbd_conf.c **** 
 103              		.loc 1 77 5 view .LVU19
 104 001a DB69     		ldr	r3, [r3, #28]
 105 001c 03F40003 		and	r3, r3, #8388608
 106 0020 0193     		str	r3, [sp, #4]
  77:USB_DEVICE/Target/usbd_conf.c **** 
 107              		.loc 1 77 5 view .LVU20
 108 0022 019B     		ldr	r3, [sp, #4]
 109              	.LBE2:
  77:USB_DEVICE/Target/usbd_conf.c **** 
 110              		.loc 1 77 5 view .LVU21
  80:USB_DEVICE/Target/usbd_conf.c ****     HAL_NVIC_EnableIRQ(USB_HP_CAN1_TX_IRQn);
 111              		.loc 1 80 5 view .LVU22
 112 0024 0022     		movs	r2, #0
 113 0026 1146     		mov	r1, r2
 114 0028 1320     		movs	r0, #19
 115              	.LVL7:
  80:USB_DEVICE/Target/usbd_conf.c ****     HAL_NVIC_EnableIRQ(USB_HP_CAN1_TX_IRQn);
 116              		.loc 1 80 5 is_stmt 0 view .LVU23
 117 002a FFF7FEFF 		bl	HAL_NVIC_SetPriority
 118              	.LVL8:
  81:USB_DEVICE/Target/usbd_conf.c ****     HAL_NVIC_SetPriority(USB_LP_CAN1_RX0_IRQn, 0, 0);
 119              		.loc 1 81 5 is_stmt 1 view .LVU24
ARM GAS  /tmp/ccoBYPID.s 			page 15


 120 002e 1320     		movs	r0, #19
 121 0030 FFF7FEFF 		bl	HAL_NVIC_EnableIRQ
 122              	.LVL9:
  82:USB_DEVICE/Target/usbd_conf.c ****     HAL_NVIC_EnableIRQ(USB_LP_CAN1_RX0_IRQn);
 123              		.loc 1 82 5 view .LVU25
 124 0034 0022     		movs	r2, #0
 125 0036 1146     		mov	r1, r2
 126 0038 1420     		movs	r0, #20
 127 003a FFF7FEFF 		bl	HAL_NVIC_SetPriority
 128              	.LVL10:
  83:USB_DEVICE/Target/usbd_conf.c ****   /* USER CODE BEGIN USB_MspInit 1 */
 129              		.loc 1 83 5 view .LVU26
 130 003e 1420     		movs	r0, #20
 131 0040 FFF7FEFF 		bl	HAL_NVIC_EnableIRQ
 132              	.LVL11:
  88:USB_DEVICE/Target/usbd_conf.c **** 
 133              		.loc 1 88 1 is_stmt 0 view .LVU27
 134 0044 03B0     		add	sp, sp, #12
 135              	.LCFI2:
 136              		.cfi_def_cfa_offset 4
 137              		@ sp needed
 138 0046 00BD     		pop	{pc}
 139              	.L15:
 140              		.align	2
 141              	.L14:
 142 0048 005C0040 		.word	1073765376
 143              		.cfi_endproc
 144              	.LFE68:
 146              		.section	.text.HAL_PCD_MspDeInit,"ax",%progbits
 147              		.align	1
 148              		.global	HAL_PCD_MspDeInit
 149              		.syntax unified
 150              		.thumb
 151              		.thumb_func
 153              	HAL_PCD_MspDeInit:
 154              	.LVL12:
 155              	.LFB69:
  91:USB_DEVICE/Target/usbd_conf.c ****   if(pcdHandle->Instance==USB)
 156              		.loc 1 91 1 is_stmt 1 view -0
 157              		.cfi_startproc
 158              		@ args = 0, pretend = 0, frame = 0
 159              		@ frame_needed = 0, uses_anonymous_args = 0
  91:USB_DEVICE/Target/usbd_conf.c ****   if(pcdHandle->Instance==USB)
 160              		.loc 1 91 1 is_stmt 0 view .LVU29
 161 0000 08B5     		push	{r3, lr}
 162              	.LCFI3:
 163              		.cfi_def_cfa_offset 8
 164              		.cfi_offset 3, -8
 165              		.cfi_offset 14, -4
  92:USB_DEVICE/Target/usbd_conf.c ****   {
 166              		.loc 1 92 3 is_stmt 1 view .LVU30
  92:USB_DEVICE/Target/usbd_conf.c ****   {
 167              		.loc 1 92 15 is_stmt 0 view .LVU31
 168 0002 0268     		ldr	r2, [r0]
  92:USB_DEVICE/Target/usbd_conf.c ****   {
 169              		.loc 1 92 5 view .LVU32
 170 0004 074B     		ldr	r3, .L20
ARM GAS  /tmp/ccoBYPID.s 			page 16


 171 0006 9A42     		cmp	r2, r3
 172 0008 00D0     		beq	.L19
 173              	.LVL13:
 174              	.L16:
 109:USB_DEVICE/Target/usbd_conf.c **** 
 175              		.loc 1 109 1 view .LVU33
 176 000a 08BD     		pop	{r3, pc}
 177              	.LVL14:
 178              	.L19:
  98:USB_DEVICE/Target/usbd_conf.c **** 
 179              		.loc 1 98 5 is_stmt 1 view .LVU34
 180 000c 064A     		ldr	r2, .L20+4
 181 000e D369     		ldr	r3, [r2, #28]
 182 0010 23F40003 		bic	r3, r3, #8388608
 183 0014 D361     		str	r3, [r2, #28]
 101:USB_DEVICE/Target/usbd_conf.c **** 
 184              		.loc 1 101 5 view .LVU35
 185 0016 1320     		movs	r0, #19
 186              	.LVL15:
 101:USB_DEVICE/Target/usbd_conf.c **** 
 187              		.loc 1 101 5 is_stmt 0 view .LVU36
 188 0018 FFF7FEFF 		bl	HAL_NVIC_DisableIRQ
 189              	.LVL16:
 103:USB_DEVICE/Target/usbd_conf.c **** 
 190              		.loc 1 103 5 is_stmt 1 view .LVU37
 191 001c 1420     		movs	r0, #20
 192 001e FFF7FEFF 		bl	HAL_NVIC_DisableIRQ
 193              	.LVL17:
 109:USB_DEVICE/Target/usbd_conf.c **** 
 194              		.loc 1 109 1 is_stmt 0 view .LVU38
 195 0022 F2E7     		b	.L16
 196              	.L21:
 197              		.align	2
 198              	.L20:
 199 0024 005C0040 		.word	1073765376
 200 0028 00100240 		.word	1073876992
 201              		.cfi_endproc
 202              	.LFE69:
 204              		.section	.text.HAL_PCD_SetupStageCallback,"ax",%progbits
 205              		.align	1
 206              		.global	HAL_PCD_SetupStageCallback
 207              		.syntax unified
 208              		.thumb
 209              		.thumb_func
 211              	HAL_PCD_SetupStageCallback:
 212              	.LVL18:
 213              	.LFB70:
 121:USB_DEVICE/Target/usbd_conf.c ****   USBD_LL_SetupStage((USBD_HandleTypeDef*)hpcd->pData, (uint8_t *)hpcd->Setup);
 214              		.loc 1 121 1 is_stmt 1 view -0
 215              		.cfi_startproc
 216              		@ args = 0, pretend = 0, frame = 0
 217              		@ frame_needed = 0, uses_anonymous_args = 0
 121:USB_DEVICE/Target/usbd_conf.c ****   USBD_LL_SetupStage((USBD_HandleTypeDef*)hpcd->pData, (uint8_t *)hpcd->Setup);
 218              		.loc 1 121 1 is_stmt 0 view .LVU40
 219 0000 08B5     		push	{r3, lr}
 220              	.LCFI4:
 221              		.cfi_def_cfa_offset 8
ARM GAS  /tmp/ccoBYPID.s 			page 17


 222              		.cfi_offset 3, -8
 223              		.cfi_offset 14, -4
 122:USB_DEVICE/Target/usbd_conf.c **** }
 224              		.loc 1 122 3 is_stmt 1 view .LVU41
 225 0002 00F52671 		add	r1, r0, #664
 226 0006 D0F8D402 		ldr	r0, [r0, #724]
 227              	.LVL19:
 122:USB_DEVICE/Target/usbd_conf.c **** }
 228              		.loc 1 122 3 is_stmt 0 view .LVU42
 229 000a FFF7FEFF 		bl	USBD_LL_SetupStage
 230              	.LVL20:
 123:USB_DEVICE/Target/usbd_conf.c **** 
 231              		.loc 1 123 1 view .LVU43
 232 000e 08BD     		pop	{r3, pc}
 233              		.cfi_endproc
 234              	.LFE70:
 236              		.section	.text.HAL_PCD_DataOutStageCallback,"ax",%progbits
 237              		.align	1
 238              		.global	HAL_PCD_DataOutStageCallback
 239              		.syntax unified
 240              		.thumb
 241              		.thumb_func
 243              	HAL_PCD_DataOutStageCallback:
 244              	.LVL21:
 245              	.LFB71:
 136:USB_DEVICE/Target/usbd_conf.c ****   USBD_LL_DataOutStage((USBD_HandleTypeDef*)hpcd->pData, epnum, hpcd->OUT_ep[epnum].xfer_buff);
 246              		.loc 1 136 1 is_stmt 1 view -0
 247              		.cfi_startproc
 248              		@ args = 0, pretend = 0, frame = 0
 249              		@ frame_needed = 0, uses_anonymous_args = 0
 136:USB_DEVICE/Target/usbd_conf.c ****   USBD_LL_DataOutStage((USBD_HandleTypeDef*)hpcd->pData, epnum, hpcd->OUT_ep[epnum].xfer_buff);
 250              		.loc 1 136 1 is_stmt 0 view .LVU45
 251 0000 08B5     		push	{r3, lr}
 252              	.LCFI5:
 253              		.cfi_def_cfa_offset 8
 254              		.cfi_offset 3, -8
 255              		.cfi_offset 14, -4
 137:USB_DEVICE/Target/usbd_conf.c **** }
 256              		.loc 1 137 3 is_stmt 1 view .LVU46
 257 0002 01EB8103 		add	r3, r1, r1, lsl #2
 258 0006 00EBC303 		add	r3, r0, r3, lsl #3
 259 000a D3F86421 		ldr	r2, [r3, #356]
 260 000e D0F8D402 		ldr	r0, [r0, #724]
 261              	.LVL22:
 137:USB_DEVICE/Target/usbd_conf.c **** }
 262              		.loc 1 137 3 is_stmt 0 view .LVU47
 263 0012 FFF7FEFF 		bl	USBD_LL_DataOutStage
 264              	.LVL23:
 138:USB_DEVICE/Target/usbd_conf.c **** 
 265              		.loc 1 138 1 view .LVU48
 266 0016 08BD     		pop	{r3, pc}
 267              		.cfi_endproc
 268              	.LFE71:
 270              		.section	.text.HAL_PCD_DataInStageCallback,"ax",%progbits
 271              		.align	1
 272              		.global	HAL_PCD_DataInStageCallback
 273              		.syntax unified
ARM GAS  /tmp/ccoBYPID.s 			page 18


 274              		.thumb
 275              		.thumb_func
 277              	HAL_PCD_DataInStageCallback:
 278              	.LVL24:
 279              	.LFB72:
 151:USB_DEVICE/Target/usbd_conf.c ****   USBD_LL_DataInStage((USBD_HandleTypeDef*)hpcd->pData, epnum, hpcd->IN_ep[epnum].xfer_buff);
 280              		.loc 1 151 1 is_stmt 1 view -0
 281              		.cfi_startproc
 282              		@ args = 0, pretend = 0, frame = 0
 283              		@ frame_needed = 0, uses_anonymous_args = 0
 151:USB_DEVICE/Target/usbd_conf.c ****   USBD_LL_DataInStage((USBD_HandleTypeDef*)hpcd->pData, epnum, hpcd->IN_ep[epnum].xfer_buff);
 284              		.loc 1 151 1 is_stmt 0 view .LVU50
 285 0000 08B5     		push	{r3, lr}
 286              	.LCFI6:
 287              		.cfi_def_cfa_offset 8
 288              		.cfi_offset 3, -8
 289              		.cfi_offset 14, -4
 152:USB_DEVICE/Target/usbd_conf.c **** }
 290              		.loc 1 152 3 is_stmt 1 view .LVU51
 291 0002 01EB8103 		add	r3, r1, r1, lsl #2
 292 0006 00EBC303 		add	r3, r0, r3, lsl #3
 293 000a 5A6A     		ldr	r2, [r3, #36]
 294 000c D0F8D402 		ldr	r0, [r0, #724]
 295              	.LVL25:
 152:USB_DEVICE/Target/usbd_conf.c **** }
 296              		.loc 1 152 3 is_stmt 0 view .LVU52
 297 0010 FFF7FEFF 		bl	USBD_LL_DataInStage
 298              	.LVL26:
 153:USB_DEVICE/Target/usbd_conf.c **** 
 299              		.loc 1 153 1 view .LVU53
 300 0014 08BD     		pop	{r3, pc}
 301              		.cfi_endproc
 302              	.LFE72:
 304              		.section	.text.HAL_PCD_SOFCallback,"ax",%progbits
 305              		.align	1
 306              		.global	HAL_PCD_SOFCallback
 307              		.syntax unified
 308              		.thumb
 309              		.thumb_func
 311              	HAL_PCD_SOFCallback:
 312              	.LVL27:
 313              	.LFB73:
 165:USB_DEVICE/Target/usbd_conf.c ****   USBD_LL_SOF((USBD_HandleTypeDef*)hpcd->pData);
 314              		.loc 1 165 1 is_stmt 1 view -0
 315              		.cfi_startproc
 316              		@ args = 0, pretend = 0, frame = 0
 317              		@ frame_needed = 0, uses_anonymous_args = 0
 165:USB_DEVICE/Target/usbd_conf.c ****   USBD_LL_SOF((USBD_HandleTypeDef*)hpcd->pData);
 318              		.loc 1 165 1 is_stmt 0 view .LVU55
 319 0000 08B5     		push	{r3, lr}
 320              	.LCFI7:
 321              		.cfi_def_cfa_offset 8
 322              		.cfi_offset 3, -8
 323              		.cfi_offset 14, -4
 166:USB_DEVICE/Target/usbd_conf.c **** }
 324              		.loc 1 166 3 is_stmt 1 view .LVU56
 325 0002 D0F8D402 		ldr	r0, [r0, #724]
ARM GAS  /tmp/ccoBYPID.s 			page 19


 326              	.LVL28:
 166:USB_DEVICE/Target/usbd_conf.c **** }
 327              		.loc 1 166 3 is_stmt 0 view .LVU57
 328 0006 FFF7FEFF 		bl	USBD_LL_SOF
 329              	.LVL29:
 167:USB_DEVICE/Target/usbd_conf.c **** 
 330              		.loc 1 167 1 view .LVU58
 331 000a 08BD     		pop	{r3, pc}
 332              		.cfi_endproc
 333              	.LFE73:
 335              		.section	.text.HAL_PCD_ResetCallback,"ax",%progbits
 336              		.align	1
 337              		.global	HAL_PCD_ResetCallback
 338              		.syntax unified
 339              		.thumb
 340              		.thumb_func
 342              	HAL_PCD_ResetCallback:
 343              	.LVL30:
 344              	.LFB74:
 179:USB_DEVICE/Target/usbd_conf.c ****   USBD_SpeedTypeDef speed = USBD_SPEED_FULL;
 345              		.loc 1 179 1 is_stmt 1 view -0
 346              		.cfi_startproc
 347              		@ args = 0, pretend = 0, frame = 0
 348              		@ frame_needed = 0, uses_anonymous_args = 0
 179:USB_DEVICE/Target/usbd_conf.c ****   USBD_SpeedTypeDef speed = USBD_SPEED_FULL;
 349              		.loc 1 179 1 is_stmt 0 view .LVU60
 350 0000 10B5     		push	{r4, lr}
 351              	.LCFI8:
 352              		.cfi_def_cfa_offset 8
 353              		.cfi_offset 4, -8
 354              		.cfi_offset 14, -4
 355 0002 0446     		mov	r4, r0
 180:USB_DEVICE/Target/usbd_conf.c **** 
 356              		.loc 1 180 3 is_stmt 1 view .LVU61
 357              	.LVL31:
 182:USB_DEVICE/Target/usbd_conf.c ****   {
 358              		.loc 1 182 3 view .LVU62
 182:USB_DEVICE/Target/usbd_conf.c ****   {
 359              		.loc 1 182 18 is_stmt 0 view .LVU63
 360 0004 8379     		ldrb	r3, [r0, #6]	@ zero_extendqisi2
 182:USB_DEVICE/Target/usbd_conf.c ****   {
 361              		.loc 1 182 6 view .LVU64
 362 0006 022B     		cmp	r3, #2
 363 0008 09D1     		bne	.L33
 364              	.LVL32:
 365              	.L31:
 187:USB_DEVICE/Target/usbd_conf.c **** 
 366              		.loc 1 187 3 is_stmt 1 view .LVU65
 367 000a 0121     		movs	r1, #1
 368 000c D4F8D402 		ldr	r0, [r4, #724]
 369 0010 FFF7FEFF 		bl	USBD_LL_SetSpeed
 370              	.LVL33:
 190:USB_DEVICE/Target/usbd_conf.c **** }
 371              		.loc 1 190 3 view .LVU66
 372 0014 D4F8D402 		ldr	r0, [r4, #724]
 373 0018 FFF7FEFF 		bl	USBD_LL_Reset
 374              	.LVL34:
ARM GAS  /tmp/ccoBYPID.s 			page 20


 191:USB_DEVICE/Target/usbd_conf.c **** 
 375              		.loc 1 191 1 is_stmt 0 view .LVU67
 376 001c 10BD     		pop	{r4, pc}
 377              	.LVL35:
 378              	.L33:
 184:USB_DEVICE/Target/usbd_conf.c ****   }
 379              		.loc 1 184 5 is_stmt 1 view .LVU68
 380 001e FFF7FEFF 		bl	Error_Handler
 381              	.LVL36:
 184:USB_DEVICE/Target/usbd_conf.c ****   }
 382              		.loc 1 184 5 is_stmt 0 view .LVU69
 383 0022 F2E7     		b	.L31
 384              		.cfi_endproc
 385              	.LFE74:
 387              		.section	.text.HAL_PCD_SuspendCallback,"ax",%progbits
 388              		.align	1
 389              		.global	HAL_PCD_SuspendCallback
 390              		.syntax unified
 391              		.thumb
 392              		.thumb_func
 394              	HAL_PCD_SuspendCallback:
 395              	.LVL37:
 396              	.LFB75:
 204:USB_DEVICE/Target/usbd_conf.c ****   /* Inform USB library that core enters in suspend Mode. */
 397              		.loc 1 204 1 is_stmt 1 view -0
 398              		.cfi_startproc
 399              		@ args = 0, pretend = 0, frame = 0
 400              		@ frame_needed = 0, uses_anonymous_args = 0
 204:USB_DEVICE/Target/usbd_conf.c ****   /* Inform USB library that core enters in suspend Mode. */
 401              		.loc 1 204 1 is_stmt 0 view .LVU71
 402 0000 10B5     		push	{r4, lr}
 403              	.LCFI9:
 404              		.cfi_def_cfa_offset 8
 405              		.cfi_offset 4, -8
 406              		.cfi_offset 14, -4
 407 0002 0446     		mov	r4, r0
 206:USB_DEVICE/Target/usbd_conf.c ****   /* Enter in STOP mode. */
 408              		.loc 1 206 3 is_stmt 1 view .LVU72
 409 0004 D0F8D402 		ldr	r0, [r0, #724]
 410              	.LVL38:
 206:USB_DEVICE/Target/usbd_conf.c ****   /* Enter in STOP mode. */
 411              		.loc 1 206 3 is_stmt 0 view .LVU73
 412 0008 FFF7FEFF 		bl	USBD_LL_Suspend
 413              	.LVL39:
 209:USB_DEVICE/Target/usbd_conf.c ****   {
 414              		.loc 1 209 3 is_stmt 1 view .LVU74
 209:USB_DEVICE/Target/usbd_conf.c ****   {
 415              		.loc 1 209 17 is_stmt 0 view .LVU75
 416 000c A37A     		ldrb	r3, [r4, #10]	@ zero_extendqisi2
 209:USB_DEVICE/Target/usbd_conf.c ****   {
 417              		.loc 1 209 6 view .LVU76
 418 000e 23B1     		cbz	r3, .L34
 212:USB_DEVICE/Target/usbd_conf.c ****   }
 419              		.loc 1 212 5 is_stmt 1 view .LVU77
 212:USB_DEVICE/Target/usbd_conf.c ****   }
 420              		.loc 1 212 8 is_stmt 0 view .LVU78
 421 0010 024A     		ldr	r2, .L37
ARM GAS  /tmp/ccoBYPID.s 			page 21


 422 0012 1369     		ldr	r3, [r2, #16]
 212:USB_DEVICE/Target/usbd_conf.c ****   }
 423              		.loc 1 212 14 view .LVU79
 424 0014 43F00603 		orr	r3, r3, #6
 425 0018 1361     		str	r3, [r2, #16]
 426              	.L34:
 215:USB_DEVICE/Target/usbd_conf.c **** 
 427              		.loc 1 215 1 view .LVU80
 428 001a 10BD     		pop	{r4, pc}
 429              	.LVL40:
 430              	.L38:
 215:USB_DEVICE/Target/usbd_conf.c **** 
 431              		.loc 1 215 1 view .LVU81
 432              		.align	2
 433              	.L37:
 434 001c 00ED00E0 		.word	-536810240
 435              		.cfi_endproc
 436              	.LFE75:
 438              		.section	.text.HAL_PCD_ResumeCallback,"ax",%progbits
 439              		.align	1
 440              		.global	HAL_PCD_ResumeCallback
 441              		.syntax unified
 442              		.thumb
 443              		.thumb_func
 445              	HAL_PCD_ResumeCallback:
 446              	.LVL41:
 447              	.LFB76:
 228:USB_DEVICE/Target/usbd_conf.c ****   /* USER CODE BEGIN 3 */
 448              		.loc 1 228 1 is_stmt 1 view -0
 449              		.cfi_startproc
 450              		@ args = 0, pretend = 0, frame = 0
 451              		@ frame_needed = 0, uses_anonymous_args = 0
 228:USB_DEVICE/Target/usbd_conf.c ****   /* USER CODE BEGIN 3 */
 452              		.loc 1 228 1 is_stmt 0 view .LVU83
 453 0000 08B5     		push	{r3, lr}
 454              	.LCFI10:
 455              		.cfi_def_cfa_offset 8
 456              		.cfi_offset 3, -8
 457              		.cfi_offset 14, -4
 232:USB_DEVICE/Target/usbd_conf.c **** }
 458              		.loc 1 232 3 is_stmt 1 view .LVU84
 459 0002 D0F8D402 		ldr	r0, [r0, #724]
 460              	.LVL42:
 232:USB_DEVICE/Target/usbd_conf.c **** }
 461              		.loc 1 232 3 is_stmt 0 view .LVU85
 462 0006 FFF7FEFF 		bl	USBD_LL_Resume
 463              	.LVL43:
 233:USB_DEVICE/Target/usbd_conf.c **** 
 464              		.loc 1 233 1 view .LVU86
 465 000a 08BD     		pop	{r3, pc}
 466              		.cfi_endproc
 467              	.LFE76:
 469              		.section	.text.HAL_PCD_ISOOUTIncompleteCallback,"ax",%progbits
 470              		.align	1
 471              		.global	HAL_PCD_ISOOUTIncompleteCallback
 472              		.syntax unified
 473              		.thumb
ARM GAS  /tmp/ccoBYPID.s 			page 22


 474              		.thumb_func
 476              	HAL_PCD_ISOOUTIncompleteCallback:
 477              	.LVL44:
 478              	.LFB77:
 246:USB_DEVICE/Target/usbd_conf.c ****   USBD_LL_IsoOUTIncomplete((USBD_HandleTypeDef*)hpcd->pData, epnum);
 479              		.loc 1 246 1 is_stmt 1 view -0
 480              		.cfi_startproc
 481              		@ args = 0, pretend = 0, frame = 0
 482              		@ frame_needed = 0, uses_anonymous_args = 0
 246:USB_DEVICE/Target/usbd_conf.c ****   USBD_LL_IsoOUTIncomplete((USBD_HandleTypeDef*)hpcd->pData, epnum);
 483              		.loc 1 246 1 is_stmt 0 view .LVU88
 484 0000 08B5     		push	{r3, lr}
 485              	.LCFI11:
 486              		.cfi_def_cfa_offset 8
 487              		.cfi_offset 3, -8
 488              		.cfi_offset 14, -4
 247:USB_DEVICE/Target/usbd_conf.c **** }
 489              		.loc 1 247 3 is_stmt 1 view .LVU89
 490 0002 D0F8D402 		ldr	r0, [r0, #724]
 491              	.LVL45:
 247:USB_DEVICE/Target/usbd_conf.c **** }
 492              		.loc 1 247 3 is_stmt 0 view .LVU90
 493 0006 FFF7FEFF 		bl	USBD_LL_IsoOUTIncomplete
 494              	.LVL46:
 248:USB_DEVICE/Target/usbd_conf.c **** 
 495              		.loc 1 248 1 view .LVU91
 496 000a 08BD     		pop	{r3, pc}
 497              		.cfi_endproc
 498              	.LFE77:
 500              		.section	.text.HAL_PCD_ISOINIncompleteCallback,"ax",%progbits
 501              		.align	1
 502              		.global	HAL_PCD_ISOINIncompleteCallback
 503              		.syntax unified
 504              		.thumb
 505              		.thumb_func
 507              	HAL_PCD_ISOINIncompleteCallback:
 508              	.LVL47:
 509              	.LFB78:
 261:USB_DEVICE/Target/usbd_conf.c ****   USBD_LL_IsoINIncomplete((USBD_HandleTypeDef*)hpcd->pData, epnum);
 510              		.loc 1 261 1 is_stmt 1 view -0
 511              		.cfi_startproc
 512              		@ args = 0, pretend = 0, frame = 0
 513              		@ frame_needed = 0, uses_anonymous_args = 0
 261:USB_DEVICE/Target/usbd_conf.c ****   USBD_LL_IsoINIncomplete((USBD_HandleTypeDef*)hpcd->pData, epnum);
 514              		.loc 1 261 1 is_stmt 0 view .LVU93
 515 0000 08B5     		push	{r3, lr}
 516              	.LCFI12:
 517              		.cfi_def_cfa_offset 8
 518              		.cfi_offset 3, -8
 519              		.cfi_offset 14, -4
 262:USB_DEVICE/Target/usbd_conf.c **** }
 520              		.loc 1 262 3 is_stmt 1 view .LVU94
 521 0002 D0F8D402 		ldr	r0, [r0, #724]
 522              	.LVL48:
 262:USB_DEVICE/Target/usbd_conf.c **** }
 523              		.loc 1 262 3 is_stmt 0 view .LVU95
 524 0006 FFF7FEFF 		bl	USBD_LL_IsoINIncomplete
ARM GAS  /tmp/ccoBYPID.s 			page 23


 525              	.LVL49:
 263:USB_DEVICE/Target/usbd_conf.c **** 
 526              		.loc 1 263 1 view .LVU96
 527 000a 08BD     		pop	{r3, pc}
 528              		.cfi_endproc
 529              	.LFE78:
 531              		.section	.text.HAL_PCD_ConnectCallback,"ax",%progbits
 532              		.align	1
 533              		.global	HAL_PCD_ConnectCallback
 534              		.syntax unified
 535              		.thumb
 536              		.thumb_func
 538              	HAL_PCD_ConnectCallback:
 539              	.LVL50:
 540              	.LFB79:
 275:USB_DEVICE/Target/usbd_conf.c ****   USBD_LL_DevConnected((USBD_HandleTypeDef*)hpcd->pData);
 541              		.loc 1 275 1 is_stmt 1 view -0
 542              		.cfi_startproc
 543              		@ args = 0, pretend = 0, frame = 0
 544              		@ frame_needed = 0, uses_anonymous_args = 0
 275:USB_DEVICE/Target/usbd_conf.c ****   USBD_LL_DevConnected((USBD_HandleTypeDef*)hpcd->pData);
 545              		.loc 1 275 1 is_stmt 0 view .LVU98
 546 0000 08B5     		push	{r3, lr}
 547              	.LCFI13:
 548              		.cfi_def_cfa_offset 8
 549              		.cfi_offset 3, -8
 550              		.cfi_offset 14, -4
 276:USB_DEVICE/Target/usbd_conf.c **** }
 551              		.loc 1 276 3 is_stmt 1 view .LVU99
 552 0002 D0F8D402 		ldr	r0, [r0, #724]
 553              	.LVL51:
 276:USB_DEVICE/Target/usbd_conf.c **** }
 554              		.loc 1 276 3 is_stmt 0 view .LVU100
 555 0006 FFF7FEFF 		bl	USBD_LL_DevConnected
 556              	.LVL52:
 277:USB_DEVICE/Target/usbd_conf.c **** 
 557              		.loc 1 277 1 view .LVU101
 558 000a 08BD     		pop	{r3, pc}
 559              		.cfi_endproc
 560              	.LFE79:
 562              		.section	.text.HAL_PCD_DisconnectCallback,"ax",%progbits
 563              		.align	1
 564              		.global	HAL_PCD_DisconnectCallback
 565              		.syntax unified
 566              		.thumb
 567              		.thumb_func
 569              	HAL_PCD_DisconnectCallback:
 570              	.LVL53:
 571              	.LFB80:
 289:USB_DEVICE/Target/usbd_conf.c ****   USBD_LL_DevDisconnected((USBD_HandleTypeDef*)hpcd->pData);
 572              		.loc 1 289 1 is_stmt 1 view -0
 573              		.cfi_startproc
 574              		@ args = 0, pretend = 0, frame = 0
 575              		@ frame_needed = 0, uses_anonymous_args = 0
 289:USB_DEVICE/Target/usbd_conf.c ****   USBD_LL_DevDisconnected((USBD_HandleTypeDef*)hpcd->pData);
 576              		.loc 1 289 1 is_stmt 0 view .LVU103
 577 0000 08B5     		push	{r3, lr}
ARM GAS  /tmp/ccoBYPID.s 			page 24


 578              	.LCFI14:
 579              		.cfi_def_cfa_offset 8
 580              		.cfi_offset 3, -8
 581              		.cfi_offset 14, -4
 290:USB_DEVICE/Target/usbd_conf.c **** }
 582              		.loc 1 290 3 is_stmt 1 view .LVU104
 583 0002 D0F8D402 		ldr	r0, [r0, #724]
 584              	.LVL54:
 290:USB_DEVICE/Target/usbd_conf.c **** }
 585              		.loc 1 290 3 is_stmt 0 view .LVU105
 586 0006 FFF7FEFF 		bl	USBD_LL_DevDisconnected
 587              	.LVL55:
 291:USB_DEVICE/Target/usbd_conf.c **** 
 588              		.loc 1 291 1 view .LVU106
 589 000a 08BD     		pop	{r3, pc}
 590              		.cfi_endproc
 591              	.LFE80:
 593              		.section	.text.USBD_LL_Init,"ax",%progbits
 594              		.align	1
 595              		.global	USBD_LL_Init
 596              		.syntax unified
 597              		.thumb
 598              		.thumb_func
 600              	USBD_LL_Init:
 601              	.LVL56:
 602              	.LFB81:
 303:USB_DEVICE/Target/usbd_conf.c ****   /* Init USB Ip. */
 603              		.loc 1 303 1 is_stmt 1 view -0
 604              		.cfi_startproc
 605              		@ args = 0, pretend = 0, frame = 0
 606              		@ frame_needed = 0, uses_anonymous_args = 0
 303:USB_DEVICE/Target/usbd_conf.c ****   /* Init USB Ip. */
 607              		.loc 1 303 1 is_stmt 0 view .LVU108
 608 0000 10B5     		push	{r4, lr}
 609              	.LCFI15:
 610              		.cfi_def_cfa_offset 8
 611              		.cfi_offset 4, -8
 612              		.cfi_offset 14, -4
 613 0002 0446     		mov	r4, r0
 306:USB_DEVICE/Target/usbd_conf.c ****   pdev->pData = &hpcd_USB_FS;
 614              		.loc 1 306 3 is_stmt 1 view .LVU109
 306:USB_DEVICE/Target/usbd_conf.c ****   pdev->pData = &hpcd_USB_FS;
 615              		.loc 1 306 21 is_stmt 0 view .LVU110
 616 0004 1D48     		ldr	r0, .L53
 617              	.LVL57:
 306:USB_DEVICE/Target/usbd_conf.c ****   pdev->pData = &hpcd_USB_FS;
 618              		.loc 1 306 21 view .LVU111
 619 0006 C0F8D442 		str	r4, [r0, #724]
 307:USB_DEVICE/Target/usbd_conf.c **** 
 620              		.loc 1 307 3 is_stmt 1 view .LVU112
 307:USB_DEVICE/Target/usbd_conf.c **** 
 621              		.loc 1 307 15 is_stmt 0 view .LVU113
 622 000a C4F8C002 		str	r0, [r4, #704]
 309:USB_DEVICE/Target/usbd_conf.c ****   hpcd_USB_FS.Init.dev_endpoints = 8;
 623              		.loc 1 309 3 is_stmt 1 view .LVU114
 309:USB_DEVICE/Target/usbd_conf.c ****   hpcd_USB_FS.Init.dev_endpoints = 8;
 624              		.loc 1 309 24 is_stmt 0 view .LVU115
ARM GAS  /tmp/ccoBYPID.s 			page 25


 625 000e 1C4B     		ldr	r3, .L53+4
 626 0010 0360     		str	r3, [r0]
 310:USB_DEVICE/Target/usbd_conf.c ****   hpcd_USB_FS.Init.speed = PCD_SPEED_FULL;
 627              		.loc 1 310 3 is_stmt 1 view .LVU116
 310:USB_DEVICE/Target/usbd_conf.c ****   hpcd_USB_FS.Init.speed = PCD_SPEED_FULL;
 628              		.loc 1 310 34 is_stmt 0 view .LVU117
 629 0012 0823     		movs	r3, #8
 630 0014 0371     		strb	r3, [r0, #4]
 311:USB_DEVICE/Target/usbd_conf.c ****   hpcd_USB_FS.Init.low_power_enable = DISABLE;
 631              		.loc 1 311 3 is_stmt 1 view .LVU118
 311:USB_DEVICE/Target/usbd_conf.c ****   hpcd_USB_FS.Init.low_power_enable = DISABLE;
 632              		.loc 1 311 26 is_stmt 0 view .LVU119
 633 0016 0223     		movs	r3, #2
 634 0018 8371     		strb	r3, [r0, #6]
 312:USB_DEVICE/Target/usbd_conf.c ****   hpcd_USB_FS.Init.lpm_enable = DISABLE;
 635              		.loc 1 312 3 is_stmt 1 view .LVU120
 312:USB_DEVICE/Target/usbd_conf.c ****   hpcd_USB_FS.Init.lpm_enable = DISABLE;
 636              		.loc 1 312 37 is_stmt 0 view .LVU121
 637 001a 0023     		movs	r3, #0
 638 001c 8372     		strb	r3, [r0, #10]
 313:USB_DEVICE/Target/usbd_conf.c ****   hpcd_USB_FS.Init.battery_charging_enable = DISABLE;
 639              		.loc 1 313 3 is_stmt 1 view .LVU122
 313:USB_DEVICE/Target/usbd_conf.c ****   hpcd_USB_FS.Init.battery_charging_enable = DISABLE;
 640              		.loc 1 313 31 is_stmt 0 view .LVU123
 641 001e C372     		strb	r3, [r0, #11]
 314:USB_DEVICE/Target/usbd_conf.c ****   if (HAL_PCD_Init(&hpcd_USB_FS) != HAL_OK)
 642              		.loc 1 314 3 is_stmt 1 view .LVU124
 314:USB_DEVICE/Target/usbd_conf.c ****   if (HAL_PCD_Init(&hpcd_USB_FS) != HAL_OK)
 643              		.loc 1 314 44 is_stmt 0 view .LVU125
 644 0020 0373     		strb	r3, [r0, #12]
 315:USB_DEVICE/Target/usbd_conf.c ****   {
 645              		.loc 1 315 3 is_stmt 1 view .LVU126
 315:USB_DEVICE/Target/usbd_conf.c ****   {
 646              		.loc 1 315 7 is_stmt 0 view .LVU127
 647 0022 FFF7FEFF 		bl	HAL_PCD_Init
 648              	.LVL58:
 315:USB_DEVICE/Target/usbd_conf.c ****   {
 649              		.loc 1 315 6 discriminator 1 view .LVU128
 650 0026 30BB     		cbnz	r0, .L52
 651              	.L50:
 336:USB_DEVICE/Target/usbd_conf.c ****   HAL_PCDEx_PMAConfig((PCD_HandleTypeDef*)pdev->pData , 0x80 , PCD_SNG_BUF, 0x58);
 652              		.loc 1 336 3 is_stmt 1 view .LVU129
 653 0028 1823     		movs	r3, #24
 654 002a 0022     		movs	r2, #0
 655 002c 1146     		mov	r1, r2
 656 002e D4F8C002 		ldr	r0, [r4, #704]
 657 0032 FFF7FEFF 		bl	HAL_PCDEx_PMAConfig
 658              	.LVL59:
 337:USB_DEVICE/Target/usbd_conf.c ****   /* USER CODE END EndPoint_Configuration */
 659              		.loc 1 337 3 view .LVU130
 660 0036 5823     		movs	r3, #88
 661 0038 0022     		movs	r2, #0
 662 003a 8021     		movs	r1, #128
 663 003c D4F8C002 		ldr	r0, [r4, #704]
 664 0040 FFF7FEFF 		bl	HAL_PCDEx_PMAConfig
 665              	.LVL60:
 340:USB_DEVICE/Target/usbd_conf.c ****   HAL_PCDEx_PMAConfig((PCD_HandleTypeDef*)pdev->pData , 0x01 , PCD_SNG_BUF, 0x110);
ARM GAS  /tmp/ccoBYPID.s 			page 26


 666              		.loc 1 340 3 view .LVU131
 667 0044 C023     		movs	r3, #192
 668 0046 0022     		movs	r2, #0
 669 0048 8121     		movs	r1, #129
 670 004a D4F8C002 		ldr	r0, [r4, #704]
 671 004e FFF7FEFF 		bl	HAL_PCDEx_PMAConfig
 672              	.LVL61:
 341:USB_DEVICE/Target/usbd_conf.c ****   HAL_PCDEx_PMAConfig((PCD_HandleTypeDef*)pdev->pData , 0x82 , PCD_SNG_BUF, 0x100);
 673              		.loc 1 341 3 view .LVU132
 674 0052 4FF48873 		mov	r3, #272
 675 0056 0022     		movs	r2, #0
 676 0058 0121     		movs	r1, #1
 677 005a D4F8C002 		ldr	r0, [r4, #704]
 678 005e FFF7FEFF 		bl	HAL_PCDEx_PMAConfig
 679              	.LVL62:
 342:USB_DEVICE/Target/usbd_conf.c ****   /* USER CODE END EndPoint_Configuration_CDC */
 680              		.loc 1 342 3 view .LVU133
 681 0062 4FF48073 		mov	r3, #256
 682 0066 0022     		movs	r2, #0
 683 0068 8221     		movs	r1, #130
 684 006a D4F8C002 		ldr	r0, [r4, #704]
 685 006e FFF7FEFF 		bl	HAL_PCDEx_PMAConfig
 686              	.LVL63:
 344:USB_DEVICE/Target/usbd_conf.c **** }
 687              		.loc 1 344 3 view .LVU134
 345:USB_DEVICE/Target/usbd_conf.c **** 
 688              		.loc 1 345 1 is_stmt 0 view .LVU135
 689 0072 0020     		movs	r0, #0
 690 0074 10BD     		pop	{r4, pc}
 691              	.LVL64:
 692              	.L52:
 317:USB_DEVICE/Target/usbd_conf.c ****   }
 693              		.loc 1 317 5 is_stmt 1 view .LVU136
 694 0076 FFF7FEFF 		bl	Error_Handler
 695              	.LVL65:
 696 007a D5E7     		b	.L50
 697              	.L54:
 698              		.align	2
 699              	.L53:
 700 007c 00000000 		.word	hpcd_USB_FS
 701 0080 005C0040 		.word	1073765376
 702              		.cfi_endproc
 703              	.LFE81:
 705              		.section	.text.USBD_LL_DeInit,"ax",%progbits
 706              		.align	1
 707              		.global	USBD_LL_DeInit
 708              		.syntax unified
 709              		.thumb
 710              		.thumb_func
 712              	USBD_LL_DeInit:
 713              	.LVL66:
 714              	.LFB82:
 353:USB_DEVICE/Target/usbd_conf.c ****   HAL_StatusTypeDef hal_status = HAL_OK;
 715              		.loc 1 353 1 view -0
 716              		.cfi_startproc
 717              		@ args = 0, pretend = 0, frame = 0
 718              		@ frame_needed = 0, uses_anonymous_args = 0
ARM GAS  /tmp/ccoBYPID.s 			page 27


 353:USB_DEVICE/Target/usbd_conf.c ****   HAL_StatusTypeDef hal_status = HAL_OK;
 719              		.loc 1 353 1 is_stmt 0 view .LVU138
 720 0000 08B5     		push	{r3, lr}
 721              	.LCFI16:
 722              		.cfi_def_cfa_offset 8
 723              		.cfi_offset 3, -8
 724              		.cfi_offset 14, -4
 354:USB_DEVICE/Target/usbd_conf.c ****   USBD_StatusTypeDef usb_status = USBD_OK;
 725              		.loc 1 354 3 is_stmt 1 view .LVU139
 726              	.LVL67:
 355:USB_DEVICE/Target/usbd_conf.c **** 
 727              		.loc 1 355 3 view .LVU140
 357:USB_DEVICE/Target/usbd_conf.c **** 
 728              		.loc 1 357 3 view .LVU141
 357:USB_DEVICE/Target/usbd_conf.c **** 
 729              		.loc 1 357 16 is_stmt 0 view .LVU142
 730 0002 D0F8C002 		ldr	r0, [r0, #704]
 731              	.LVL68:
 357:USB_DEVICE/Target/usbd_conf.c **** 
 732              		.loc 1 357 16 view .LVU143
 733 0006 FFF7FEFF 		bl	HAL_PCD_DeInit
 734              	.LVL69:
 359:USB_DEVICE/Target/usbd_conf.c **** 
 735              		.loc 1 359 3 is_stmt 1 view .LVU144
 359:USB_DEVICE/Target/usbd_conf.c **** 
 736              		.loc 1 359 17 is_stmt 0 view .LVU145
 737 000a FFF7FEFF 		bl	USBD_Get_USB_Status
 738              	.LVL70:
 361:USB_DEVICE/Target/usbd_conf.c **** }
 739              		.loc 1 361 3 is_stmt 1 view .LVU146
 362:USB_DEVICE/Target/usbd_conf.c **** 
 740              		.loc 1 362 1 is_stmt 0 view .LVU147
 741 000e 08BD     		pop	{r3, pc}
 742              		.cfi_endproc
 743              	.LFE82:
 745              		.section	.text.USBD_LL_Start,"ax",%progbits
 746              		.align	1
 747              		.global	USBD_LL_Start
 748              		.syntax unified
 749              		.thumb
 750              		.thumb_func
 752              	USBD_LL_Start:
 753              	.LVL71:
 754              	.LFB83:
 370:USB_DEVICE/Target/usbd_conf.c ****   HAL_StatusTypeDef hal_status = HAL_OK;
 755              		.loc 1 370 1 is_stmt 1 view -0
 756              		.cfi_startproc
 757              		@ args = 0, pretend = 0, frame = 0
 758              		@ frame_needed = 0, uses_anonymous_args = 0
 370:USB_DEVICE/Target/usbd_conf.c ****   HAL_StatusTypeDef hal_status = HAL_OK;
 759              		.loc 1 370 1 is_stmt 0 view .LVU149
 760 0000 08B5     		push	{r3, lr}
 761              	.LCFI17:
 762              		.cfi_def_cfa_offset 8
 763              		.cfi_offset 3, -8
 764              		.cfi_offset 14, -4
 371:USB_DEVICE/Target/usbd_conf.c ****   USBD_StatusTypeDef usb_status = USBD_OK;
ARM GAS  /tmp/ccoBYPID.s 			page 28


 765              		.loc 1 371 3 is_stmt 1 view .LVU150
 766              	.LVL72:
 372:USB_DEVICE/Target/usbd_conf.c **** 
 767              		.loc 1 372 3 view .LVU151
 374:USB_DEVICE/Target/usbd_conf.c **** 
 768              		.loc 1 374 3 view .LVU152
 374:USB_DEVICE/Target/usbd_conf.c **** 
 769              		.loc 1 374 16 is_stmt 0 view .LVU153
 770 0002 D0F8C002 		ldr	r0, [r0, #704]
 771              	.LVL73:
 374:USB_DEVICE/Target/usbd_conf.c **** 
 772              		.loc 1 374 16 view .LVU154
 773 0006 FFF7FEFF 		bl	HAL_PCD_Start
 774              	.LVL74:
 376:USB_DEVICE/Target/usbd_conf.c **** 
 775              		.loc 1 376 3 is_stmt 1 view .LVU155
 376:USB_DEVICE/Target/usbd_conf.c **** 
 776              		.loc 1 376 17 is_stmt 0 view .LVU156
 777 000a FFF7FEFF 		bl	USBD_Get_USB_Status
 778              	.LVL75:
 378:USB_DEVICE/Target/usbd_conf.c **** }
 779              		.loc 1 378 3 is_stmt 1 view .LVU157
 379:USB_DEVICE/Target/usbd_conf.c **** 
 780              		.loc 1 379 1 is_stmt 0 view .LVU158
 781 000e 08BD     		pop	{r3, pc}
 782              		.cfi_endproc
 783              	.LFE83:
 785              		.section	.text.USBD_LL_Stop,"ax",%progbits
 786              		.align	1
 787              		.global	USBD_LL_Stop
 788              		.syntax unified
 789              		.thumb
 790              		.thumb_func
 792              	USBD_LL_Stop:
 793              	.LVL76:
 794              	.LFB84:
 387:USB_DEVICE/Target/usbd_conf.c ****   HAL_StatusTypeDef hal_status = HAL_OK;
 795              		.loc 1 387 1 is_stmt 1 view -0
 796              		.cfi_startproc
 797              		@ args = 0, pretend = 0, frame = 0
 798              		@ frame_needed = 0, uses_anonymous_args = 0
 387:USB_DEVICE/Target/usbd_conf.c ****   HAL_StatusTypeDef hal_status = HAL_OK;
 799              		.loc 1 387 1 is_stmt 0 view .LVU160
 800 0000 08B5     		push	{r3, lr}
 801              	.LCFI18:
 802              		.cfi_def_cfa_offset 8
 803              		.cfi_offset 3, -8
 804              		.cfi_offset 14, -4
 388:USB_DEVICE/Target/usbd_conf.c ****   USBD_StatusTypeDef usb_status = USBD_OK;
 805              		.loc 1 388 3 is_stmt 1 view .LVU161
 806              	.LVL77:
 389:USB_DEVICE/Target/usbd_conf.c **** 
 807              		.loc 1 389 3 view .LVU162
 391:USB_DEVICE/Target/usbd_conf.c **** 
 808              		.loc 1 391 3 view .LVU163
 391:USB_DEVICE/Target/usbd_conf.c **** 
 809              		.loc 1 391 16 is_stmt 0 view .LVU164
ARM GAS  /tmp/ccoBYPID.s 			page 29


 810 0002 D0F8C002 		ldr	r0, [r0, #704]
 811              	.LVL78:
 391:USB_DEVICE/Target/usbd_conf.c **** 
 812              		.loc 1 391 16 view .LVU165
 813 0006 FFF7FEFF 		bl	HAL_PCD_Stop
 814              	.LVL79:
 393:USB_DEVICE/Target/usbd_conf.c **** 
 815              		.loc 1 393 3 is_stmt 1 view .LVU166
 393:USB_DEVICE/Target/usbd_conf.c **** 
 816              		.loc 1 393 17 is_stmt 0 view .LVU167
 817 000a FFF7FEFF 		bl	USBD_Get_USB_Status
 818              	.LVL80:
 395:USB_DEVICE/Target/usbd_conf.c **** }
 819              		.loc 1 395 3 is_stmt 1 view .LVU168
 396:USB_DEVICE/Target/usbd_conf.c **** 
 820              		.loc 1 396 1 is_stmt 0 view .LVU169
 821 000e 08BD     		pop	{r3, pc}
 822              		.cfi_endproc
 823              	.LFE84:
 825              		.section	.text.USBD_LL_OpenEP,"ax",%progbits
 826              		.align	1
 827              		.global	USBD_LL_OpenEP
 828              		.syntax unified
 829              		.thumb
 830              		.thumb_func
 832              	USBD_LL_OpenEP:
 833              	.LVL81:
 834              	.LFB85:
 407:USB_DEVICE/Target/usbd_conf.c ****   HAL_StatusTypeDef hal_status = HAL_OK;
 835              		.loc 1 407 1 is_stmt 1 view -0
 836              		.cfi_startproc
 837              		@ args = 0, pretend = 0, frame = 0
 838              		@ frame_needed = 0, uses_anonymous_args = 0
 407:USB_DEVICE/Target/usbd_conf.c ****   HAL_StatusTypeDef hal_status = HAL_OK;
 839              		.loc 1 407 1 is_stmt 0 view .LVU171
 840 0000 08B5     		push	{r3, lr}
 841              	.LCFI19:
 842              		.cfi_def_cfa_offset 8
 843              		.cfi_offset 3, -8
 844              		.cfi_offset 14, -4
 845 0002 9446     		mov	ip, r2
 846 0004 1A46     		mov	r2, r3
 847              	.LVL82:
 408:USB_DEVICE/Target/usbd_conf.c ****   USBD_StatusTypeDef usb_status = USBD_OK;
 848              		.loc 1 408 3 is_stmt 1 view .LVU172
 409:USB_DEVICE/Target/usbd_conf.c **** 
 849              		.loc 1 409 3 view .LVU173
 411:USB_DEVICE/Target/usbd_conf.c **** 
 850              		.loc 1 411 3 view .LVU174
 411:USB_DEVICE/Target/usbd_conf.c **** 
 851              		.loc 1 411 16 is_stmt 0 view .LVU175
 852 0006 6346     		mov	r3, ip
 853              	.LVL83:
 411:USB_DEVICE/Target/usbd_conf.c **** 
 854              		.loc 1 411 16 view .LVU176
 855 0008 D0F8C002 		ldr	r0, [r0, #704]
 856              	.LVL84:
ARM GAS  /tmp/ccoBYPID.s 			page 30


 411:USB_DEVICE/Target/usbd_conf.c **** 
 857              		.loc 1 411 16 view .LVU177
 858 000c FFF7FEFF 		bl	HAL_PCD_EP_Open
 859              	.LVL85:
 413:USB_DEVICE/Target/usbd_conf.c **** 
 860              		.loc 1 413 3 is_stmt 1 view .LVU178
 413:USB_DEVICE/Target/usbd_conf.c **** 
 861              		.loc 1 413 17 is_stmt 0 view .LVU179
 862 0010 FFF7FEFF 		bl	USBD_Get_USB_Status
 863              	.LVL86:
 415:USB_DEVICE/Target/usbd_conf.c **** }
 864              		.loc 1 415 3 is_stmt 1 view .LVU180
 416:USB_DEVICE/Target/usbd_conf.c **** 
 865              		.loc 1 416 1 is_stmt 0 view .LVU181
 866 0014 08BD     		pop	{r3, pc}
 867              		.cfi_endproc
 868              	.LFE85:
 870              		.section	.text.USBD_LL_CloseEP,"ax",%progbits
 871              		.align	1
 872              		.global	USBD_LL_CloseEP
 873              		.syntax unified
 874              		.thumb
 875              		.thumb_func
 877              	USBD_LL_CloseEP:
 878              	.LVL87:
 879              	.LFB86:
 425:USB_DEVICE/Target/usbd_conf.c ****   HAL_StatusTypeDef hal_status = HAL_OK;
 880              		.loc 1 425 1 is_stmt 1 view -0
 881              		.cfi_startproc
 882              		@ args = 0, pretend = 0, frame = 0
 883              		@ frame_needed = 0, uses_anonymous_args = 0
 425:USB_DEVICE/Target/usbd_conf.c ****   HAL_StatusTypeDef hal_status = HAL_OK;
 884              		.loc 1 425 1 is_stmt 0 view .LVU183
 885 0000 08B5     		push	{r3, lr}
 886              	.LCFI20:
 887              		.cfi_def_cfa_offset 8
 888              		.cfi_offset 3, -8
 889              		.cfi_offset 14, -4
 426:USB_DEVICE/Target/usbd_conf.c ****   USBD_StatusTypeDef usb_status = USBD_OK;
 890              		.loc 1 426 3 is_stmt 1 view .LVU184
 891              	.LVL88:
 427:USB_DEVICE/Target/usbd_conf.c **** 
 892              		.loc 1 427 3 view .LVU185
 429:USB_DEVICE/Target/usbd_conf.c **** 
 893              		.loc 1 429 3 view .LVU186
 429:USB_DEVICE/Target/usbd_conf.c **** 
 894              		.loc 1 429 16 is_stmt 0 view .LVU187
 895 0002 D0F8C002 		ldr	r0, [r0, #704]
 896              	.LVL89:
 429:USB_DEVICE/Target/usbd_conf.c **** 
 897              		.loc 1 429 16 view .LVU188
 898 0006 FFF7FEFF 		bl	HAL_PCD_EP_Close
 899              	.LVL90:
 431:USB_DEVICE/Target/usbd_conf.c **** 
 900              		.loc 1 431 3 is_stmt 1 view .LVU189
 431:USB_DEVICE/Target/usbd_conf.c **** 
 901              		.loc 1 431 17 is_stmt 0 view .LVU190
ARM GAS  /tmp/ccoBYPID.s 			page 31


 902 000a FFF7FEFF 		bl	USBD_Get_USB_Status
 903              	.LVL91:
 433:USB_DEVICE/Target/usbd_conf.c **** }
 904              		.loc 1 433 3 is_stmt 1 view .LVU191
 434:USB_DEVICE/Target/usbd_conf.c **** 
 905              		.loc 1 434 1 is_stmt 0 view .LVU192
 906 000e 08BD     		pop	{r3, pc}
 907              		.cfi_endproc
 908              	.LFE86:
 910              		.section	.text.USBD_LL_FlushEP,"ax",%progbits
 911              		.align	1
 912              		.global	USBD_LL_FlushEP
 913              		.syntax unified
 914              		.thumb
 915              		.thumb_func
 917              	USBD_LL_FlushEP:
 918              	.LVL92:
 919              	.LFB87:
 443:USB_DEVICE/Target/usbd_conf.c ****   HAL_StatusTypeDef hal_status = HAL_OK;
 920              		.loc 1 443 1 is_stmt 1 view -0
 921              		.cfi_startproc
 922              		@ args = 0, pretend = 0, frame = 0
 923              		@ frame_needed = 0, uses_anonymous_args = 0
 443:USB_DEVICE/Target/usbd_conf.c ****   HAL_StatusTypeDef hal_status = HAL_OK;
 924              		.loc 1 443 1 is_stmt 0 view .LVU194
 925 0000 08B5     		push	{r3, lr}
 926              	.LCFI21:
 927              		.cfi_def_cfa_offset 8
 928              		.cfi_offset 3, -8
 929              		.cfi_offset 14, -4
 444:USB_DEVICE/Target/usbd_conf.c ****   USBD_StatusTypeDef usb_status = USBD_OK;
 930              		.loc 1 444 3 is_stmt 1 view .LVU195
 931              	.LVL93:
 445:USB_DEVICE/Target/usbd_conf.c **** 
 932              		.loc 1 445 3 view .LVU196
 447:USB_DEVICE/Target/usbd_conf.c **** 
 933              		.loc 1 447 3 view .LVU197
 447:USB_DEVICE/Target/usbd_conf.c **** 
 934              		.loc 1 447 16 is_stmt 0 view .LVU198
 935 0002 D0F8C002 		ldr	r0, [r0, #704]
 936              	.LVL94:
 447:USB_DEVICE/Target/usbd_conf.c **** 
 937              		.loc 1 447 16 view .LVU199
 938 0006 FFF7FEFF 		bl	HAL_PCD_EP_Flush
 939              	.LVL95:
 449:USB_DEVICE/Target/usbd_conf.c **** 
 940              		.loc 1 449 3 is_stmt 1 view .LVU200
 449:USB_DEVICE/Target/usbd_conf.c **** 
 941              		.loc 1 449 17 is_stmt 0 view .LVU201
 942 000a FFF7FEFF 		bl	USBD_Get_USB_Status
 943              	.LVL96:
 451:USB_DEVICE/Target/usbd_conf.c **** }
 944              		.loc 1 451 3 is_stmt 1 view .LVU202
 452:USB_DEVICE/Target/usbd_conf.c **** 
 945              		.loc 1 452 1 is_stmt 0 view .LVU203
 946 000e 08BD     		pop	{r3, pc}
 947              		.cfi_endproc
ARM GAS  /tmp/ccoBYPID.s 			page 32


 948              	.LFE87:
 950              		.section	.text.USBD_LL_StallEP,"ax",%progbits
 951              		.align	1
 952              		.global	USBD_LL_StallEP
 953              		.syntax unified
 954              		.thumb
 955              		.thumb_func
 957              	USBD_LL_StallEP:
 958              	.LVL97:
 959              	.LFB88:
 461:USB_DEVICE/Target/usbd_conf.c ****   HAL_StatusTypeDef hal_status = HAL_OK;
 960              		.loc 1 461 1 is_stmt 1 view -0
 961              		.cfi_startproc
 962              		@ args = 0, pretend = 0, frame = 0
 963              		@ frame_needed = 0, uses_anonymous_args = 0
 461:USB_DEVICE/Target/usbd_conf.c ****   HAL_StatusTypeDef hal_status = HAL_OK;
 964              		.loc 1 461 1 is_stmt 0 view .LVU205
 965 0000 08B5     		push	{r3, lr}
 966              	.LCFI22:
 967              		.cfi_def_cfa_offset 8
 968              		.cfi_offset 3, -8
 969              		.cfi_offset 14, -4
 462:USB_DEVICE/Target/usbd_conf.c ****   USBD_StatusTypeDef usb_status = USBD_OK;
 970              		.loc 1 462 3 is_stmt 1 view .LVU206
 971              	.LVL98:
 463:USB_DEVICE/Target/usbd_conf.c **** 
 972              		.loc 1 463 3 view .LVU207
 465:USB_DEVICE/Target/usbd_conf.c **** 
 973              		.loc 1 465 3 view .LVU208
 465:USB_DEVICE/Target/usbd_conf.c **** 
 974              		.loc 1 465 16 is_stmt 0 view .LVU209
 975 0002 D0F8C002 		ldr	r0, [r0, #704]
 976              	.LVL99:
 465:USB_DEVICE/Target/usbd_conf.c **** 
 977              		.loc 1 465 16 view .LVU210
 978 0006 FFF7FEFF 		bl	HAL_PCD_EP_SetStall
 979              	.LVL100:
 467:USB_DEVICE/Target/usbd_conf.c **** 
 980              		.loc 1 467 3 is_stmt 1 view .LVU211
 467:USB_DEVICE/Target/usbd_conf.c **** 
 981              		.loc 1 467 17 is_stmt 0 view .LVU212
 982 000a FFF7FEFF 		bl	USBD_Get_USB_Status
 983              	.LVL101:
 469:USB_DEVICE/Target/usbd_conf.c **** }
 984              		.loc 1 469 3 is_stmt 1 view .LVU213
 470:USB_DEVICE/Target/usbd_conf.c **** 
 985              		.loc 1 470 1 is_stmt 0 view .LVU214
 986 000e 08BD     		pop	{r3, pc}
 987              		.cfi_endproc
 988              	.LFE88:
 990              		.section	.text.USBD_LL_ClearStallEP,"ax",%progbits
 991              		.align	1
 992              		.global	USBD_LL_ClearStallEP
 993              		.syntax unified
 994              		.thumb
 995              		.thumb_func
 997              	USBD_LL_ClearStallEP:
ARM GAS  /tmp/ccoBYPID.s 			page 33


 998              	.LVL102:
 999              	.LFB89:
 479:USB_DEVICE/Target/usbd_conf.c ****   HAL_StatusTypeDef hal_status = HAL_OK;
 1000              		.loc 1 479 1 is_stmt 1 view -0
 1001              		.cfi_startproc
 1002              		@ args = 0, pretend = 0, frame = 0
 1003              		@ frame_needed = 0, uses_anonymous_args = 0
 479:USB_DEVICE/Target/usbd_conf.c ****   HAL_StatusTypeDef hal_status = HAL_OK;
 1004              		.loc 1 479 1 is_stmt 0 view .LVU216
 1005 0000 08B5     		push	{r3, lr}
 1006              	.LCFI23:
 1007              		.cfi_def_cfa_offset 8
 1008              		.cfi_offset 3, -8
 1009              		.cfi_offset 14, -4
 480:USB_DEVICE/Target/usbd_conf.c ****   USBD_StatusTypeDef usb_status = USBD_OK;
 1010              		.loc 1 480 3 is_stmt 1 view .LVU217
 1011              	.LVL103:
 481:USB_DEVICE/Target/usbd_conf.c **** 
 1012              		.loc 1 481 3 view .LVU218
 483:USB_DEVICE/Target/usbd_conf.c **** 
 1013              		.loc 1 483 3 view .LVU219
 483:USB_DEVICE/Target/usbd_conf.c **** 
 1014              		.loc 1 483 16 is_stmt 0 view .LVU220
 1015 0002 D0F8C002 		ldr	r0, [r0, #704]
 1016              	.LVL104:
 483:USB_DEVICE/Target/usbd_conf.c **** 
 1017              		.loc 1 483 16 view .LVU221
 1018 0006 FFF7FEFF 		bl	HAL_PCD_EP_ClrStall
 1019              	.LVL105:
 485:USB_DEVICE/Target/usbd_conf.c **** 
 1020              		.loc 1 485 3 is_stmt 1 view .LVU222
 485:USB_DEVICE/Target/usbd_conf.c **** 
 1021              		.loc 1 485 17 is_stmt 0 view .LVU223
 1022 000a FFF7FEFF 		bl	USBD_Get_USB_Status
 1023              	.LVL106:
 487:USB_DEVICE/Target/usbd_conf.c **** }
 1024              		.loc 1 487 3 is_stmt 1 view .LVU224
 488:USB_DEVICE/Target/usbd_conf.c **** 
 1025              		.loc 1 488 1 is_stmt 0 view .LVU225
 1026 000e 08BD     		pop	{r3, pc}
 1027              		.cfi_endproc
 1028              	.LFE89:
 1030              		.section	.text.USBD_LL_IsStallEP,"ax",%progbits
 1031              		.align	1
 1032              		.global	USBD_LL_IsStallEP
 1033              		.syntax unified
 1034              		.thumb
 1035              		.thumb_func
 1037              	USBD_LL_IsStallEP:
 1038              	.LVL107:
 1039              	.LFB90:
 497:USB_DEVICE/Target/usbd_conf.c ****   PCD_HandleTypeDef *hpcd = (PCD_HandleTypeDef*) pdev->pData;
 1040              		.loc 1 497 1 is_stmt 1 view -0
 1041              		.cfi_startproc
 1042              		@ args = 0, pretend = 0, frame = 0
 1043              		@ frame_needed = 0, uses_anonymous_args = 0
 1044              		@ link register save eliminated.
ARM GAS  /tmp/ccoBYPID.s 			page 34


 498:USB_DEVICE/Target/usbd_conf.c **** 
 1045              		.loc 1 498 3 view .LVU227
 498:USB_DEVICE/Target/usbd_conf.c **** 
 1046              		.loc 1 498 22 is_stmt 0 view .LVU228
 1047 0000 D0F8C032 		ldr	r3, [r0, #704]
 1048              	.LVL108:
 500:USB_DEVICE/Target/usbd_conf.c ****   {
 1049              		.loc 1 500 3 is_stmt 1 view .LVU229
 500:USB_DEVICE/Target/usbd_conf.c ****   {
 1050              		.loc 1 500 5 is_stmt 0 view .LVU230
 1051 0004 11F0800F 		tst	r1, #128
 1052 0008 08D1     		bne	.L74
 506:USB_DEVICE/Target/usbd_conf.c ****   }
 1053              		.loc 1 506 5 is_stmt 1 view .LVU231
 506:USB_DEVICE/Target/usbd_conf.c ****   }
 1054              		.loc 1 506 33 is_stmt 0 view .LVU232
 1055 000a 01F07F01 		and	r1, r1, #127
 1056              	.LVL109:
 506:USB_DEVICE/Target/usbd_conf.c ****   }
 1057              		.loc 1 506 40 view .LVU233
 1058 000e 01EB8101 		add	r1, r1, r1, lsl #2
 1059 0012 03EBC103 		add	r3, r3, r1, lsl #3
 1060              	.LVL110:
 506:USB_DEVICE/Target/usbd_conf.c ****   }
 1061              		.loc 1 506 40 view .LVU234
 1062 0016 93F85201 		ldrb	r0, [r3, #338]	@ zero_extendqisi2
 1063              	.LVL111:
 508:USB_DEVICE/Target/usbd_conf.c **** 
 1064              		.loc 1 508 1 view .LVU235
 1065 001a 7047     		bx	lr
 1066              	.LVL112:
 1067              	.L74:
 502:USB_DEVICE/Target/usbd_conf.c ****   }
 1068              		.loc 1 502 5 is_stmt 1 view .LVU236
 502:USB_DEVICE/Target/usbd_conf.c ****   }
 1069              		.loc 1 502 32 is_stmt 0 view .LVU237
 1070 001c 01F07F01 		and	r1, r1, #127
 1071              	.LVL113:
 502:USB_DEVICE/Target/usbd_conf.c ****   }
 1072              		.loc 1 502 39 view .LVU238
 1073 0020 01EB8101 		add	r1, r1, r1, lsl #2
 1074 0024 03EBC103 		add	r3, r3, r1, lsl #3
 1075              	.LVL114:
 502:USB_DEVICE/Target/usbd_conf.c ****   }
 1076              		.loc 1 502 39 view .LVU239
 1077 0028 987C     		ldrb	r0, [r3, #18]	@ zero_extendqisi2
 1078              	.LVL115:
 502:USB_DEVICE/Target/usbd_conf.c ****   }
 1079              		.loc 1 502 39 view .LVU240
 1080 002a 7047     		bx	lr
 1081              		.cfi_endproc
 1082              	.LFE90:
 1084              		.section	.text.USBD_LL_SetUSBAddress,"ax",%progbits
 1085              		.align	1
 1086              		.global	USBD_LL_SetUSBAddress
 1087              		.syntax unified
 1088              		.thumb
ARM GAS  /tmp/ccoBYPID.s 			page 35


 1089              		.thumb_func
 1091              	USBD_LL_SetUSBAddress:
 1092              	.LVL116:
 1093              	.LFB91:
 517:USB_DEVICE/Target/usbd_conf.c ****   HAL_StatusTypeDef hal_status = HAL_OK;
 1094              		.loc 1 517 1 is_stmt 1 view -0
 1095              		.cfi_startproc
 1096              		@ args = 0, pretend = 0, frame = 0
 1097              		@ frame_needed = 0, uses_anonymous_args = 0
 517:USB_DEVICE/Target/usbd_conf.c ****   HAL_StatusTypeDef hal_status = HAL_OK;
 1098              		.loc 1 517 1 is_stmt 0 view .LVU242
 1099 0000 08B5     		push	{r3, lr}
 1100              	.LCFI24:
 1101              		.cfi_def_cfa_offset 8
 1102              		.cfi_offset 3, -8
 1103              		.cfi_offset 14, -4
 518:USB_DEVICE/Target/usbd_conf.c ****   USBD_StatusTypeDef usb_status = USBD_OK;
 1104              		.loc 1 518 3 is_stmt 1 view .LVU243
 1105              	.LVL117:
 519:USB_DEVICE/Target/usbd_conf.c **** 
 1106              		.loc 1 519 3 view .LVU244
 521:USB_DEVICE/Target/usbd_conf.c **** 
 1107              		.loc 1 521 3 view .LVU245
 521:USB_DEVICE/Target/usbd_conf.c **** 
 1108              		.loc 1 521 16 is_stmt 0 view .LVU246
 1109 0002 D0F8C002 		ldr	r0, [r0, #704]
 1110              	.LVL118:
 521:USB_DEVICE/Target/usbd_conf.c **** 
 1111              		.loc 1 521 16 view .LVU247
 1112 0006 FFF7FEFF 		bl	HAL_PCD_SetAddress
 1113              	.LVL119:
 523:USB_DEVICE/Target/usbd_conf.c **** 
 1114              		.loc 1 523 3 is_stmt 1 view .LVU248
 523:USB_DEVICE/Target/usbd_conf.c **** 
 1115              		.loc 1 523 17 is_stmt 0 view .LVU249
 1116 000a FFF7FEFF 		bl	USBD_Get_USB_Status
 1117              	.LVL120:
 525:USB_DEVICE/Target/usbd_conf.c **** }
 1118              		.loc 1 525 3 is_stmt 1 view .LVU250
 526:USB_DEVICE/Target/usbd_conf.c **** 
 1119              		.loc 1 526 1 is_stmt 0 view .LVU251
 1120 000e 08BD     		pop	{r3, pc}
 1121              		.cfi_endproc
 1122              	.LFE91:
 1124              		.section	.text.USBD_LL_Transmit,"ax",%progbits
 1125              		.align	1
 1126              		.global	USBD_LL_Transmit
 1127              		.syntax unified
 1128              		.thumb
 1129              		.thumb_func
 1131              	USBD_LL_Transmit:
 1132              	.LVL121:
 1133              	.LFB92:
 537:USB_DEVICE/Target/usbd_conf.c ****   HAL_StatusTypeDef hal_status = HAL_OK;
 1134              		.loc 1 537 1 is_stmt 1 view -0
 1135              		.cfi_startproc
 1136              		@ args = 0, pretend = 0, frame = 0
ARM GAS  /tmp/ccoBYPID.s 			page 36


 1137              		@ frame_needed = 0, uses_anonymous_args = 0
 537:USB_DEVICE/Target/usbd_conf.c ****   HAL_StatusTypeDef hal_status = HAL_OK;
 1138              		.loc 1 537 1 is_stmt 0 view .LVU253
 1139 0000 08B5     		push	{r3, lr}
 1140              	.LCFI25:
 1141              		.cfi_def_cfa_offset 8
 1142              		.cfi_offset 3, -8
 1143              		.cfi_offset 14, -4
 538:USB_DEVICE/Target/usbd_conf.c ****   USBD_StatusTypeDef usb_status = USBD_OK;
 1144              		.loc 1 538 3 is_stmt 1 view .LVU254
 1145              	.LVL122:
 539:USB_DEVICE/Target/usbd_conf.c **** 
 1146              		.loc 1 539 3 view .LVU255
 541:USB_DEVICE/Target/usbd_conf.c **** 
 1147              		.loc 1 541 3 view .LVU256
 541:USB_DEVICE/Target/usbd_conf.c **** 
 1148              		.loc 1 541 16 is_stmt 0 view .LVU257
 1149 0002 D0F8C002 		ldr	r0, [r0, #704]
 1150              	.LVL123:
 541:USB_DEVICE/Target/usbd_conf.c **** 
 1151              		.loc 1 541 16 view .LVU258
 1152 0006 FFF7FEFF 		bl	HAL_PCD_EP_Transmit
 1153              	.LVL124:
 543:USB_DEVICE/Target/usbd_conf.c **** 
 1154              		.loc 1 543 3 is_stmt 1 view .LVU259
 543:USB_DEVICE/Target/usbd_conf.c **** 
 1155              		.loc 1 543 17 is_stmt 0 view .LVU260
 1156 000a FFF7FEFF 		bl	USBD_Get_USB_Status
 1157              	.LVL125:
 545:USB_DEVICE/Target/usbd_conf.c **** }
 1158              		.loc 1 545 3 is_stmt 1 view .LVU261
 546:USB_DEVICE/Target/usbd_conf.c **** 
 1159              		.loc 1 546 1 is_stmt 0 view .LVU262
 1160 000e 08BD     		pop	{r3, pc}
 1161              		.cfi_endproc
 1162              	.LFE92:
 1164              		.section	.text.USBD_LL_PrepareReceive,"ax",%progbits
 1165              		.align	1
 1166              		.global	USBD_LL_PrepareReceive
 1167              		.syntax unified
 1168              		.thumb
 1169              		.thumb_func
 1171              	USBD_LL_PrepareReceive:
 1172              	.LVL126:
 1173              	.LFB93:
 557:USB_DEVICE/Target/usbd_conf.c ****   HAL_StatusTypeDef hal_status = HAL_OK;
 1174              		.loc 1 557 1 is_stmt 1 view -0
 1175              		.cfi_startproc
 1176              		@ args = 0, pretend = 0, frame = 0
 1177              		@ frame_needed = 0, uses_anonymous_args = 0
 557:USB_DEVICE/Target/usbd_conf.c ****   HAL_StatusTypeDef hal_status = HAL_OK;
 1178              		.loc 1 557 1 is_stmt 0 view .LVU264
 1179 0000 08B5     		push	{r3, lr}
 1180              	.LCFI26:
 1181              		.cfi_def_cfa_offset 8
 1182              		.cfi_offset 3, -8
 1183              		.cfi_offset 14, -4
ARM GAS  /tmp/ccoBYPID.s 			page 37


 558:USB_DEVICE/Target/usbd_conf.c ****   USBD_StatusTypeDef usb_status = USBD_OK;
 1184              		.loc 1 558 3 is_stmt 1 view .LVU265
 1185              	.LVL127:
 559:USB_DEVICE/Target/usbd_conf.c **** 
 1186              		.loc 1 559 3 view .LVU266
 561:USB_DEVICE/Target/usbd_conf.c **** 
 1187              		.loc 1 561 3 view .LVU267
 561:USB_DEVICE/Target/usbd_conf.c **** 
 1188              		.loc 1 561 16 is_stmt 0 view .LVU268
 1189 0002 D0F8C002 		ldr	r0, [r0, #704]
 1190              	.LVL128:
 561:USB_DEVICE/Target/usbd_conf.c **** 
 1191              		.loc 1 561 16 view .LVU269
 1192 0006 FFF7FEFF 		bl	HAL_PCD_EP_Receive
 1193              	.LVL129:
 563:USB_DEVICE/Target/usbd_conf.c **** 
 1194              		.loc 1 563 3 is_stmt 1 view .LVU270
 563:USB_DEVICE/Target/usbd_conf.c **** 
 1195              		.loc 1 563 17 is_stmt 0 view .LVU271
 1196 000a FFF7FEFF 		bl	USBD_Get_USB_Status
 1197              	.LVL130:
 565:USB_DEVICE/Target/usbd_conf.c **** }
 1198              		.loc 1 565 3 is_stmt 1 view .LVU272
 566:USB_DEVICE/Target/usbd_conf.c **** 
 1199              		.loc 1 566 1 is_stmt 0 view .LVU273
 1200 000e 08BD     		pop	{r3, pc}
 1201              		.cfi_endproc
 1202              	.LFE93:
 1204              		.section	.text.USBD_LL_GetRxDataSize,"ax",%progbits
 1205              		.align	1
 1206              		.global	USBD_LL_GetRxDataSize
 1207              		.syntax unified
 1208              		.thumb
 1209              		.thumb_func
 1211              	USBD_LL_GetRxDataSize:
 1212              	.LVL131:
 1213              	.LFB94:
 575:USB_DEVICE/Target/usbd_conf.c ****   return HAL_PCD_EP_GetRxCount((PCD_HandleTypeDef*) pdev->pData, ep_addr);
 1214              		.loc 1 575 1 is_stmt 1 view -0
 1215              		.cfi_startproc
 1216              		@ args = 0, pretend = 0, frame = 0
 1217              		@ frame_needed = 0, uses_anonymous_args = 0
 575:USB_DEVICE/Target/usbd_conf.c ****   return HAL_PCD_EP_GetRxCount((PCD_HandleTypeDef*) pdev->pData, ep_addr);
 1218              		.loc 1 575 1 is_stmt 0 view .LVU275
 1219 0000 08B5     		push	{r3, lr}
 1220              	.LCFI27:
 1221              		.cfi_def_cfa_offset 8
 1222              		.cfi_offset 3, -8
 1223              		.cfi_offset 14, -4
 576:USB_DEVICE/Target/usbd_conf.c **** }
 1224              		.loc 1 576 3 is_stmt 1 view .LVU276
 576:USB_DEVICE/Target/usbd_conf.c **** }
 1225              		.loc 1 576 10 is_stmt 0 view .LVU277
 1226 0002 D0F8C002 		ldr	r0, [r0, #704]
 1227              	.LVL132:
 576:USB_DEVICE/Target/usbd_conf.c **** }
 1228              		.loc 1 576 10 view .LVU278
ARM GAS  /tmp/ccoBYPID.s 			page 38


 1229 0006 FFF7FEFF 		bl	HAL_PCD_EP_GetRxCount
 1230              	.LVL133:
 577:USB_DEVICE/Target/usbd_conf.c **** 
 1231              		.loc 1 577 1 view .LVU279
 1232 000a 08BD     		pop	{r3, pc}
 1233              		.cfi_endproc
 1234              	.LFE94:
 1236              		.section	.text.USBD_LL_Delay,"ax",%progbits
 1237              		.align	1
 1238              		.global	USBD_LL_Delay
 1239              		.syntax unified
 1240              		.thumb
 1241              		.thumb_func
 1243              	USBD_LL_Delay:
 1244              	.LVL134:
 1245              	.LFB95:
 585:USB_DEVICE/Target/usbd_conf.c ****   HAL_Delay(Delay);
 1246              		.loc 1 585 1 is_stmt 1 view -0
 1247              		.cfi_startproc
 1248              		@ args = 0, pretend = 0, frame = 0
 1249              		@ frame_needed = 0, uses_anonymous_args = 0
 585:USB_DEVICE/Target/usbd_conf.c ****   HAL_Delay(Delay);
 1250              		.loc 1 585 1 is_stmt 0 view .LVU281
 1251 0000 08B5     		push	{r3, lr}
 1252              	.LCFI28:
 1253              		.cfi_def_cfa_offset 8
 1254              		.cfi_offset 3, -8
 1255              		.cfi_offset 14, -4
 586:USB_DEVICE/Target/usbd_conf.c **** }
 1256              		.loc 1 586 3 is_stmt 1 view .LVU282
 1257 0002 FFF7FEFF 		bl	HAL_Delay
 1258              	.LVL135:
 587:USB_DEVICE/Target/usbd_conf.c **** 
 1259              		.loc 1 587 1 is_stmt 0 view .LVU283
 1260 0006 08BD     		pop	{r3, pc}
 1261              		.cfi_endproc
 1262              	.LFE95:
 1264              		.section	.text.USBD_static_malloc,"ax",%progbits
 1265              		.align	1
 1266              		.global	USBD_static_malloc
 1267              		.syntax unified
 1268              		.thumb
 1269              		.thumb_func
 1271              	USBD_static_malloc:
 1272              	.LVL136:
 1273              	.LFB96:
 595:USB_DEVICE/Target/usbd_conf.c ****   static uint32_t mem[(sizeof(USBD_CDC_HandleTypeDef)/4)+1];/* On 32-bit boundary */
 1274              		.loc 1 595 1 is_stmt 1 view -0
 1275              		.cfi_startproc
 1276              		@ args = 0, pretend = 0, frame = 0
 1277              		@ frame_needed = 0, uses_anonymous_args = 0
 1278              		@ link register save eliminated.
 596:USB_DEVICE/Target/usbd_conf.c ****   return mem;
 1279              		.loc 1 596 3 view .LVU285
 597:USB_DEVICE/Target/usbd_conf.c **** }
 1280              		.loc 1 597 3 view .LVU286
 598:USB_DEVICE/Target/usbd_conf.c **** 
ARM GAS  /tmp/ccoBYPID.s 			page 39


 1281              		.loc 1 598 1 is_stmt 0 view .LVU287
 1282 0000 0048     		ldr	r0, .L86
 1283              	.LVL137:
 598:USB_DEVICE/Target/usbd_conf.c **** 
 1284              		.loc 1 598 1 view .LVU288
 1285 0002 7047     		bx	lr
 1286              	.L87:
 1287              		.align	2
 1288              	.L86:
 1289 0004 00000000 		.word	mem.0
 1290              		.cfi_endproc
 1291              	.LFE96:
 1293              		.section	.text.USBD_static_free,"ax",%progbits
 1294              		.align	1
 1295              		.global	USBD_static_free
 1296              		.syntax unified
 1297              		.thumb
 1298              		.thumb_func
 1300              	USBD_static_free:
 1301              	.LVL138:
 1302              	.LFB97:
 606:USB_DEVICE/Target/usbd_conf.c **** 
 1303              		.loc 1 606 1 is_stmt 1 view -0
 1304              		.cfi_startproc
 1305              		@ args = 0, pretend = 0, frame = 0
 1306              		@ frame_needed = 0, uses_anonymous_args = 0
 1307              		@ link register save eliminated.
 608:USB_DEVICE/Target/usbd_conf.c **** 
 1308              		.loc 1 608 1 view .LVU290
 1309 0000 7047     		bx	lr
 1310              		.cfi_endproc
 1311              	.LFE97:
 1313              		.section	.text.HAL_PCDEx_SetConnectionState,"ax",%progbits
 1314              		.align	1
 1315              		.global	HAL_PCDEx_SetConnectionState
 1316              		.syntax unified
 1317              		.thumb
 1318              		.thumb_func
 1320              	HAL_PCDEx_SetConnectionState:
 1321              	.LVL139:
 1322              	.LFB98:
 621:USB_DEVICE/Target/usbd_conf.c ****   /* USER CODE BEGIN 6 */
 1323              		.loc 1 621 1 view -0
 1324              		.cfi_startproc
 1325              		@ args = 0, pretend = 0, frame = 0
 1326              		@ frame_needed = 0, uses_anonymous_args = 0
 1327              		@ link register save eliminated.
 623:USB_DEVICE/Target/usbd_conf.c ****   {
 1328              		.loc 1 623 3 view .LVU292
 627:USB_DEVICE/Target/usbd_conf.c ****   else
 1329              		.loc 1 627 3 view .LVU293
 632:USB_DEVICE/Target/usbd_conf.c ****   /* USER CODE END 6 */
 1330              		.loc 1 632 3 view .LVU294
 634:USB_DEVICE/Target/usbd_conf.c **** 
 1331              		.loc 1 634 1 is_stmt 0 view .LVU295
 1332 0000 7047     		bx	lr
 1333              		.cfi_endproc
ARM GAS  /tmp/ccoBYPID.s 			page 40


 1334              	.LFE98:
 1336              		.section	.bss.mem.0,"aw",%nobits
 1337              		.align	2
 1340              	mem.0:
 1341 0000 00000000 		.space	544
 1341      00000000 
 1341      00000000 
 1341      00000000 
 1341      00000000 
 1342              		.global	hpcd_USB_FS
 1343              		.section	.bss.hpcd_USB_FS,"aw",%nobits
 1344              		.align	2
 1347              	hpcd_USB_FS:
 1348 0000 00000000 		.space	728
 1348      00000000 
 1348      00000000 
 1348      00000000 
 1348      00000000 
 1349              		.text
 1350              	.Letext0:
 1351              		.file 2 "Drivers/CMSIS/Device/ST/STM32F1xx/Include/stm32f103xb.h"
 1352              		.file 3 "/opt/arm-gnu-toolchain-15.2.rel1-x86_64-arm-none-eabi/arm-none-eabi/include/machine/_defa
 1353              		.file 4 "/opt/arm-gnu-toolchain-15.2.rel1-x86_64-arm-none-eabi/arm-none-eabi/include/sys/_stdint.h
 1354              		.file 5 "Drivers/CMSIS/Include/core_cm3.h"
 1355              		.file 6 "Drivers/CMSIS/Device/ST/STM32F1xx/Include/stm32f1xx.h"
 1356              		.file 7 "Drivers/STM32F1xx_HAL_Driver/Inc/stm32f1xx_hal_def.h"
 1357              		.file 8 "Drivers/STM32F1xx_HAL_Driver/Inc/stm32f1xx_ll_usb.h"
 1358              		.file 9 "Drivers/STM32F1xx_HAL_Driver/Inc/stm32f1xx_hal_pcd.h"
 1359              		.file 10 "Middlewares/ST/STM32_USB_Device_Library/Core/Inc/usbd_def.h"
 1360              		.file 11 "Drivers/STM32F1xx_HAL_Driver/Inc/stm32f1xx_hal_pcd_ex.h"
 1361              		.file 12 "Middlewares/ST/STM32_USB_Device_Library/Core/Inc/usbd_core.h"
 1362              		.file 13 "Drivers/STM32F1xx_HAL_Driver/Inc/stm32f1xx_hal.h"
 1363              		.file 14 "Drivers/STM32F1xx_HAL_Driver/Inc/stm32f1xx_hal_cortex.h"
ARM GAS  /tmp/ccoBYPID.s 			page 41

